

Microchip MPLAB XC8 Assembler V2.05 build -831301201 
                                                                                               Tue May 07 17:19:21 2019

Microchip MPLAB XC8 C Compiler v2.05 (Free license) build 20181220022703 Og1 
     1                           	processor	16F877A
     2                           	opt	pw 120
     3                           	opt	flic
     4                           	psect	strings,global,class=STRING,delta=2
     5                           	psect	nvBANK1,global,class=BANK1,space=1,delta=1
     6                           	psect	cinit,global,class=CODE,merge=1,delta=2
     7                           	psect	bssBANK1,global,class=BANK1,space=1,delta=1
     8                           	psect	cstackBANK1,global,class=BANK1,space=1,delta=1
     9                           	psect	cstackCOMMON,global,class=COMMON,space=1,delta=1
    10                           	psect	cstackBANK0,global,class=BANK0,space=1,delta=1
    11                           	psect	maintext,global,class=CODE,split=1,delta=2
    12                           	psect	text1,local,class=CODE,merge=1,delta=2
    13                           	psect	text2,local,class=CODE,merge=1,delta=2
    14                           	psect	text3,local,class=CODE,merge=1,delta=2,group=1
    15                           	psect	text4,local,class=CODE,merge=1,delta=2,group=1
    16                           	psect	text5,local,class=CODE,merge=1,delta=2,group=1
    17                           	psect	text6,local,class=CODE,merge=1,delta=2,group=1
    18                           	psect	text7,local,class=CODE,merge=1,delta=2,group=1
    19                           	psect	text8,local,class=CODE,merge=1,delta=2
    20                           	psect	text9,local,class=CODE,merge=1,delta=2
    21                           	psect	text10,local,class=CODE,merge=1,delta=2
    22                           	psect	text11,local,class=CODE,merge=1,delta=2
    23                           	psect	text12,local,class=CODE,merge=1,delta=2,group=1
    24                           	psect	text13,local,class=CODE,merge=1,delta=2
    25                           	psect	text14,local,class=CODE,merge=1,delta=2
    26                           	dabs	1,0x7E,2
    27  0000                     
    28                           ; Version 2.05
    29                           ; Generated 20/12/2018 GMT
    30                           ; 
    31                           ; Copyright © 2018, Microchip Technology Inc. and its subsidiaries ("Microchip")
    32                           ; All rights reserved.
    33                           ; 
    34                           ; This software is developed by Microchip Technology Inc. and its subsidiaries ("Microch
      +                          ip").
    35                           ; 
    36                           ; Redistribution and use in source and binary forms, with or without modification, are
    37                           ; permitted provided that the following conditions are met:
    38                           ; 
    39                           ;     1. Redistributions of source code must retain the above copyright notice, this lis
      +                          t of
    40                           ;        conditions and the following disclaimer.
    41                           ; 
    42                           ;     2. Redistributions in binary form must reproduce the above copyright notice, this 
      +                          list
    43                           ;        of conditions and the following disclaimer in the documentation and/or other
    44                           ;        materials provided with the distribution.
    45                           ; 
    46                           ;     3. Microchip's name may not be used to endorse or promote products derived from th
      +                          is
    47                           ;        software without specific prior written permission.
    48                           ; 
    49                           ; THIS SOFTWARE IS PROVIDED BY MICROCHIP "AS IS" AND ANY EXPRESS OR IMPLIED WARRANTIES,
    50                           ; INCLUDING, BUT NOT LIMITED TO, THE IMPLIED WARRANTIES OF MERCHANTABILITY AND FITNESS F
      +                          OR
    51                           ; PURPOSE ARE DISCLAIMED.  IN NO EVENT SHALL MICROCHIP BE LIABLE FOR ANY DIRECT, INDIREC
      +                          T,
    52                           ; INCIDENTAL, SPECIAL, EXEMPLARY, OR CONSEQUENTIAL DAMAGES (INCLUDING BUT NOT LIMITED TO
    53                           ; PROCUREMENT OF SUBSTITUTE GOODS OR SERVICES; LOSS OF USE, DATA OR PROFITS; OR BUSINESS
    54                           ; INTERRUPTION) HOWSOEVER CAUSED AND ON ANY THEORY OF LIABILITY, WHETHER IN CONTRACT, ST
      +                          RICT
    55                           ; LIABILITY, OR TORT (INCLUDING NEGLIGENCE OR OTHERWISE) ARISING IN ANY WAY OUT OF THE U
      +                          SE OF
    56                           ; THIS SOFTWARE, EVEN IF ADVISED OF THE POSSIBILITY OF SUCH DAMAGE.
    57                           ; 
    58                           ; 
    59                           ; Code-generator required, PIC16F877A Definitions
    60                           ; 
    61                           ; SFR Addresses
    62  0000                     	;# 
    63  0001                     	;# 
    64  0002                     	;# 
    65  0003                     	;# 
    66  0004                     	;# 
    67  0005                     	;# 
    68  0006                     	;# 
    69  0007                     	;# 
    70  0008                     	;# 
    71  0009                     	;# 
    72  000A                     	;# 
    73  000B                     	;# 
    74  000C                     	;# 
    75  000D                     	;# 
    76  000E                     	;# 
    77  000E                     	;# 
    78  000F                     	;# 
    79  0010                     	;# 
    80  0011                     	;# 
    81  0012                     	;# 
    82  0013                     	;# 
    83  0014                     	;# 
    84  0015                     	;# 
    85  0015                     	;# 
    86  0016                     	;# 
    87  0017                     	;# 
    88  0018                     	;# 
    89  0019                     	;# 
    90  001A                     	;# 
    91  001B                     	;# 
    92  001B                     	;# 
    93  001C                     	;# 
    94  001D                     	;# 
    95  001E                     	;# 
    96  001F                     	;# 
    97  0081                     	;# 
    98  0085                     	;# 
    99  0086                     	;# 
   100  0087                     	;# 
   101  0088                     	;# 
   102  0089                     	;# 
   103  008C                     	;# 
   104  008D                     	;# 
   105  008E                     	;# 
   106  0091                     	;# 
   107  0092                     	;# 
   108  0093                     	;# 
   109  0094                     	;# 
   110  0098                     	;# 
   111  0099                     	;# 
   112  009C                     	;# 
   113  009D                     	;# 
   114  009E                     	;# 
   115  009F                     	;# 
   116  010C                     	;# 
   117  010D                     	;# 
   118  010E                     	;# 
   119  010F                     	;# 
   120  018C                     	;# 
   121  018D                     	;# 
   122  0000                     	;# 
   123  0001                     	;# 
   124  0002                     	;# 
   125  0003                     	;# 
   126  0004                     	;# 
   127  0005                     	;# 
   128  0006                     	;# 
   129  0007                     	;# 
   130  0008                     	;# 
   131  0009                     	;# 
   132  000A                     	;# 
   133  000B                     	;# 
   134  000C                     	;# 
   135  000D                     	;# 
   136  000E                     	;# 
   137  000E                     	;# 
   138  000F                     	;# 
   139  0010                     	;# 
   140  0011                     	;# 
   141  0012                     	;# 
   142  0013                     	;# 
   143  0014                     	;# 
   144  0015                     	;# 
   145  0015                     	;# 
   146  0016                     	;# 
   147  0017                     	;# 
   148  0018                     	;# 
   149  0019                     	;# 
   150  001A                     	;# 
   151  001B                     	;# 
   152  001B                     	;# 
   153  001C                     	;# 
   154  001D                     	;# 
   155  001E                     	;# 
   156  001F                     	;# 
   157  0081                     	;# 
   158  0085                     	;# 
   159  0086                     	;# 
   160  0087                     	;# 
   161  0088                     	;# 
   162  0089                     	;# 
   163  008C                     	;# 
   164  008D                     	;# 
   165  008E                     	;# 
   166  0091                     	;# 
   167  0092                     	;# 
   168  0093                     	;# 
   169  0094                     	;# 
   170  0098                     	;# 
   171  0099                     	;# 
   172  009C                     	;# 
   173  009D                     	;# 
   174  009E                     	;# 
   175  009F                     	;# 
   176  010C                     	;# 
   177  010D                     	;# 
   178  010E                     	;# 
   179  010F                     	;# 
   180  018C                     	;# 
   181  018D                     	;# 
   182                           
   183                           	psect	strings
   184  0800                     __pstrings:	
   185  0800                     stringtab:	
   186  0800                     __stringtab:	
   187  0800                     stringcode:	
   188                           ;	String table - string pointers are 1 byte each
   189                           
   190  0800                     stringdir:	
   191  0800  3008               	movlw	high stringdir
   192  0801  008A               	movwf	10
   193  0802  0804               	movf	4,w
   194  0803  0A84               	incf	4,f
   195  0804  0782               	addwf	2,f
   196  0805                     __stringbase:	
   197  0805  3400               	retlw	0
   198  0806                     __end_of__stringtab:	
   199  0806                     main@delta:	
   200  0806  3419               	retlw	25
   201  0807                     __end_ofmain@delta:	
   202                           
   203                           	psect	nvBANK1
   204  00A8                     __pnvBANK1:	
   205  00A8                     _FREQ1:	
   206  00A8                     	ds	2
   207  0008                     _PORTDbits	set	8
   208  0006                     _PORTBbits	set	6
   209  0008                     _PORTD	set	8
   210  0006                     _PORTB	set	6
   211  001E                     _ADRESH	set	30
   212  001F                     _ADCON0bits	set	31
   213  001B                     _CCPR2L	set	27
   214  0015                     _CCPR1L	set	21
   215  0092                     _TMR2ON	set	146
   216  0091                     _T2CKPS1	set	145
   217  0090                     _T2CKPS0	set	144
   218  00BA                     _CCP1M2	set	186
   219  00BB                     _CCP1M3	set	187
   220  00EA                     _CCP2M2	set	234
   221  00EB                     _CCP2M3	set	235
   222  00EC                     _CCP2Y	set	236
   223  00ED                     _CCP2X	set	237
   224  00BC                     _CCP1Y	set	188
   225  00BD                     _CCP1X	set	189
   226  0088                     _TRISD	set	136
   227  0086                     _TRISB	set	134
   228  009E                     _ADRESL	set	158
   229  009F                     _ADCON1bits	set	159
   230  0092                     _PR2	set	146
   231  0439                     _TRISC1	set	1081
   232  043A                     _TRISC2	set	1082
   233                           
   234                           	psect	cinit
   235  07F8                     start_initialization:	
   236                           ; #config settings
   237                           
   238  07F8                     __initialization:	
   239                           
   240                           ; Clear objects allocated to BANK1
   241  07F8  1683               	bsf	3,5	;RP0=1, select bank1
   242  07F9  1303               	bcf	3,6	;RP1=0, select bank1
   243  07FA  01AA               	clrf	__pbssBANK1& (0+127)
   244  07FB  01AB               	clrf	(__pbssBANK1+1)& (0+127)
   245  07FC                     end_of_initialization:	
   246                           ;End of C runtime variable initialization code
   247                           
   248  07FC                     __end_of__initialization:	
   249  07FC  0183               	clrf	3
   250  07FD  120A  118A  2A83   	ljmp	_main	;jump to C main() function
   251                           
   252                           	psect	bssBANK1
   253  00AA                     __pbssBANK1:	
   254  00AA                     _FREQ2:	
   255  00AA                     	ds	2
   256                           
   257                           	psect	cstackBANK1
   258  00A0                     __pcstackBANK1:	
   259  00A0                     ?_pwmSetDutyCycle1:	
   260  00A0                     ?_pwmSetDutyCycle2:	
   261                           ; 1 bytes @ 0x0
   262                           
   263  00A0                     pwmSetDutyCycle1@duty:	
   264                           ; 1 bytes @ 0x0
   265                           
   266  00A0                     pwmSetDutyCycle2@duty:	
   267                           ; 2 bytes @ 0x0
   268                           
   269                           
   270                           ; 2 bytes @ 0x0
   271  00A0                     	ds	2
   272  00A2                     ??_pwmSetDutyCycle1:	
   273  00A2                     ??_pwmSetDutyCycle2:	
   274                           ; 1 bytes @ 0x2
   275                           
   276                           
   277                           ; 1 bytes @ 0x2
   278  00A2                     	ds	2
   279  00A4                     ??_main:	
   280                           
   281                           ; 1 bytes @ 0x4
   282  00A4                     	ds	2
   283  00A6                     main@duty1:	
   284                           
   285                           ; 2 bytes @ 0x6
   286  00A6                     	ds	2
   287                           
   288                           	psect	cstackCOMMON
   289  0070                     __pcstackCOMMON:	
   290  0070                     ?_setTMR2:	
   291  0070                     ??_setTMR2:	
   292                           ; 1 bytes @ 0x0
   293                           
   294  0070                     ?_adcInit:	
   295                           ; 1 bytes @ 0x0
   296                           
   297  0070                     ??_adcInit:	
   298                           ; 1 bytes @ 0x0
   299                           
   300  0070                     ?_main:	
   301                           ; 1 bytes @ 0x0
   302                           
   303  0070                     ?__Umul8_16:	
   304                           ; 1 bytes @ 0x0
   305                           
   306  0070                     ?_adcRead:	
   307                           ; 2 bytes @ 0x0
   308                           
   309  0070                     ?___aldiv:	
   310                           ; 2 bytes @ 0x0
   311                           
   312  0070                     setTMR2@pwm:	
   313                           ; 4 bytes @ 0x0
   314                           
   315  0070                     __Umul8_16@multiplicand:	
   316                           ; 1 bytes @ 0x0
   317                           
   318  0070                     adcRead@adcChannel:	
   319                           ; 1 bytes @ 0x0
   320                           
   321  0070                     ___aldiv@divisor:	
   322                           ; 2 bytes @ 0x0
   323                           
   324                           
   325                           ; 4 bytes @ 0x0
   326  0070                     	ds	2
   327  0072                     ??__Umul8_16:	
   328  0072                     ??_adcRead:	
   329                           ; 1 bytes @ 0x2
   330                           
   331                           
   332                           ; 1 bytes @ 0x2
   333  0072                     	ds	2
   334  0074                     __Umul8_16@product:	
   335  0074                     ___aldiv@dividend:	
   336                           ; 2 bytes @ 0x4
   337                           
   338                           
   339                           ; 4 bytes @ 0x4
   340  0074                     	ds	2
   341  0076                     __Umul8_16@word_mpld:	
   342                           
   343                           ; 2 bytes @ 0x6
   344  0076                     	ds	2
   345  0078                     ??___aldiv:	
   346  0078                     __Umul8_16@multiplier:	
   347                           ; 1 bytes @ 0x8
   348                           
   349                           
   350                           ; 1 bytes @ 0x8
   351  0078                     	ds	1
   352  0079                     ??_setPR2:	
   353  0079                     ??___xxtofl:	
   354                           ; 1 bytes @ 0x9
   355                           
   356                           
   357                           ; 1 bytes @ 0x9
   358  0079                     	ds	2
   359  007B                     ??_pwmInit1:	
   360  007B                     ??_pwmInit2:	
   361                           ; 1 bytes @ 0xB
   362                           
   363                           
   364                           ; 1 bytes @ 0xB
   365  007B                     	ds	2
   366                           
   367                           	psect	cstackBANK0
   368  0020                     __pcstackBANK0:	
   369  0020                     ___aldiv@counter:	
   370                           
   371                           ; 1 bytes @ 0x0
   372  0020                     	ds	1
   373  0021                     ___aldiv@sign:	
   374                           
   375                           ; 1 bytes @ 0x1
   376  0021                     	ds	1
   377  0022                     ___aldiv@quotient:	
   378                           
   379                           ; 4 bytes @ 0x2
   380  0022                     	ds	4
   381  0026                     ?_setPR2:	
   382  0026                     ?___xxtofl:	
   383                           ; 1 bytes @ 0x6
   384                           
   385  0026                     setPR2@freq:	
   386                           ; 4 bytes @ 0x6
   387                           
   388  0026                     ___xxtofl@val:	
   389                           ; 2 bytes @ 0x6
   390                           
   391                           
   392                           ; 4 bytes @ 0x6
   393  0026                     	ds	2
   394  0028                     ?_pwmInit1:	
   395  0028                     ?_pwmInit2:	
   396                           ; 1 bytes @ 0x8
   397                           
   398  0028                     pwmInit1@freq:	
   399                           ; 1 bytes @ 0x8
   400                           
   401  0028                     pwmInit2@freq:	
   402                           ; 2 bytes @ 0x8
   403                           
   404                           
   405                           ; 2 bytes @ 0x8
   406  0028                     	ds	2
   407  002A                     ___xxtofl@sign:	
   408                           
   409                           ; 1 bytes @ 0xA
   410  002A                     	ds	1
   411  002B                     ___xxtofl@exp:	
   412                           
   413                           ; 1 bytes @ 0xB
   414  002B                     	ds	1
   415  002C                     ___xxtofl@arg:	
   416                           
   417                           ; 4 bytes @ 0xC
   418  002C                     	ds	4
   419  0030                     ?___fldiv:	
   420  0030                     ___fldiv@a:	
   421                           ; 4 bytes @ 0x10
   422                           
   423                           
   424                           ; 4 bytes @ 0x10
   425  0030                     	ds	4
   426  0034                     ___fldiv@b:	
   427                           
   428                           ; 4 bytes @ 0x14
   429  0034                     	ds	4
   430  0038                     ??___fldiv:	
   431                           
   432                           ; 1 bytes @ 0x18
   433  0038                     	ds	5
   434  003D                     ___fldiv@rem:	
   435                           
   436                           ; 4 bytes @ 0x1D
   437  003D                     	ds	4
   438  0041                     ___fldiv@sign:	
   439                           
   440                           ; 1 bytes @ 0x21
   441  0041                     	ds	1
   442  0042                     ___fldiv@new_exp:	
   443                           
   444                           ; 2 bytes @ 0x22
   445  0042                     	ds	2
   446  0044                     ___fldiv@grs:	
   447                           
   448                           ; 4 bytes @ 0x24
   449  0044                     	ds	4
   450  0048                     ___fldiv@bexp:	
   451                           
   452                           ; 1 bytes @ 0x28
   453  0048                     	ds	1
   454  0049                     ___fldiv@aexp:	
   455                           
   456                           ; 1 bytes @ 0x29
   457  0049                     	ds	1
   458  004A                     ?___flmul:	
   459  004A                     ___flmul@b:	
   460                           ; 4 bytes @ 0x2A
   461                           
   462                           
   463                           ; 4 bytes @ 0x2A
   464  004A                     	ds	4
   465  004E                     ___flmul@a:	
   466                           
   467                           ; 4 bytes @ 0x2E
   468  004E                     	ds	4
   469  0052                     ??___flmul:	
   470                           
   471                           ; 1 bytes @ 0x32
   472  0052                     	ds	5
   473  0057                     ___flmul@sign:	
   474                           
   475                           ; 1 bytes @ 0x37
   476  0057                     	ds	1
   477  0058                     ___flmul@grs:	
   478                           
   479                           ; 4 bytes @ 0x38
   480  0058                     	ds	4
   481  005C                     ___flmul@aexp:	
   482                           
   483                           ; 1 bytes @ 0x3C
   484  005C                     	ds	1
   485  005D                     ___flmul@bexp:	
   486                           
   487                           ; 1 bytes @ 0x3D
   488  005D                     	ds	1
   489  005E                     ___flmul@prod:	
   490                           
   491                           ; 4 bytes @ 0x3E
   492  005E                     	ds	4
   493  0062                     ___flmul@temp:	
   494                           
   495                           ; 2 bytes @ 0x42
   496  0062                     	ds	2
   497  0064                     ?___fltol:	
   498  0064                     ___fltol@f1:	
   499                           ; 4 bytes @ 0x44
   500                           
   501                           
   502                           ; 4 bytes @ 0x44
   503  0064                     	ds	4
   504  0068                     ??___fltol:	
   505                           
   506                           ; 1 bytes @ 0x48
   507  0068                     	ds	5
   508  006D                     ___fltol@sign1:	
   509                           
   510                           ; 1 bytes @ 0x4D
   511  006D                     	ds	1
   512  006E                     ___fltol@exp1:	
   513                           
   514                           ; 1 bytes @ 0x4E
   515  006E                     	ds	1
   516                           
   517                           	psect	maintext
   518  0283                     __pmaintext:	
   519 ;;
   520 ;;Main: autosize = 0, tempsize = 2, incstack = 0, save=0
   521 ;;
   522 ;; *************** function _main *****************
   523 ;; Defined at:
   524 ;;		line 7 in file "main.c"
   525 ;; Parameters:    Size  Location     Type
   526 ;;		None
   527 ;; Auto vars:     Size  Location     Type
   528 ;;  duty1           2    6[BANK1 ] unsigned int 
   529 ;; Return value:  Size  Location     Type
   530 ;;                  1    wreg      void 
   531 ;; Registers used:
   532 ;;		wreg, status,2, status,0, btemp+1, pclath, cstack
   533 ;; Tracked objects:
   534 ;;		On entry : B00/0
   535 ;;		On exit  : 0/0
   536 ;;		Unchanged: 0/0
   537 ;; Data sizes:     COMMON   BANK0   BANK1   BANK3   BANK2
   538 ;;      Params:         0       0       0       0       0
   539 ;;      Locals:         0       0       2       0       0
   540 ;;      Temps:          0       0       2       0       0
   541 ;;      Totals:         0       0       4       0       0
   542 ;;Total ram usage:        4 bytes
   543 ;; Hardware stack levels required when called:    3
   544 ;; This function calls:
   545 ;;		_adcInit
   546 ;;		_adcRead
   547 ;;		_pwmInit1
   548 ;;		_pwmInit2
   549 ;;		_pwmSetDutyCycle1
   550 ;;		_pwmSetDutyCycle2
   551 ;; This function is called by:
   552 ;;		Startup code after reset
   553 ;; This function uses a non-reentrant model
   554 ;;
   555                           
   556                           
   557                           ;psect for function _main
   558  0283                     _main:	
   559                           
   560                           ;main.c: 8:     TRISB = 255;
   561                           
   562                           ;incstack = 0
   563                           ; Regs used in _main: [wreg+status,2+status,0+btemp+1+pclath+cstack]
   564  0283  30FF               	movlw	255
   565  0284  1683               	bsf	3,5	;RP0=1, select bank1
   566  0285  1303               	bcf	3,6	;RP1=0, select bank1
   567  0286  0086               	movwf	6	;volatile
   568                           
   569                           ;main.c: 9:     PORTB = 0;
   570  0287  1283               	bcf	3,5	;RP0=0, select bank0
   571  0288  1303               	bcf	3,6	;RP1=0, select bank0
   572  0289  0186               	clrf	6	;volatile
   573                           
   574                           ;main.c: 10:     TRISD = 0;
   575  028A  1683               	bsf	3,5	;RP0=1, select bank1
   576  028B  1303               	bcf	3,6	;RP1=0, select bank1
   577  028C  0188               	clrf	8	;volatile
   578                           
   579                           ;main.c: 11:     PORTD = 0;
   580  028D  1283               	bcf	3,5	;RP0=0, select bank0
   581  028E  1303               	bcf	3,6	;RP1=0, select bank0
   582  028F  0188               	clrf	8	;volatile
   583                           
   584                           ;main.c: 13:     adcInit();
   585  0290  120A  158A  269B  120A  118A  	fcall	_adcInit
   586                           
   587                           ;main.c: 15:     pwmInit1(2000);
   588  0295  30D0               	movlw	208
   589  0296  1283               	bcf	3,5	;RP0=0, select bank0
   590  0297  1303               	bcf	3,6	;RP1=0, select bank0
   591  0298  00A8               	movwf	pwmInit1@freq
   592  0299  3007               	movlw	7
   593  029A  00A9               	movwf	pwmInit1@freq+1
   594  029B  120A  158A  26AB  120A  118A  	fcall	_pwmInit1
   595                           
   596                           ;main.c: 16:     pwmInit2(2000);
   597  02A0  30D0               	movlw	208
   598  02A1  1283               	bcf	3,5	;RP0=0, select bank0
   599  02A2  1303               	bcf	3,6	;RP1=0, select bank0
   600  02A3  00A8               	movwf	pwmInit2@freq
   601  02A4  3007               	movlw	7
   602  02A5  00A9               	movwf	pwmInit2@freq+1
   603  02A6  120A  158A  26C7  120A  118A  	fcall	_pwmInit2
   604                           
   605                           ;main.c: 17:     pwmSetDutyCycle1(0);
   606  02AB  3000               	movlw	0
   607  02AC  1683               	bsf	3,5	;RP0=1, select bank1
   608  02AD  1303               	bcf	3,6	;RP1=0, select bank1
   609  02AE  00A0               	movwf	pwmSetDutyCycle1@duty^(0+128)
   610  02AF  00A1               	movwf	(pwmSetDutyCycle1@duty+1)^(0+128)
   611  02B0  120A  118A  2117  120A  118A  	fcall	_pwmSetDutyCycle1
   612                           
   613                           ;main.c: 18:     pwmSetDutyCycle2(0);
   614  02B5  3000               	movlw	0
   615  02B6  1683               	bsf	3,5	;RP0=1, select bank1
   616  02B7  1303               	bcf	3,6	;RP1=0, select bank1
   617  02B8  00A0               	movwf	pwmSetDutyCycle2@duty^(0+128)
   618  02B9  00A1               	movwf	(pwmSetDutyCycle2@duty+1)^(0+128)
   619  02BA  120A  118A  21CD  120A  118A  	fcall	_pwmSetDutyCycle2
   620                           
   621                           ;main.c: 19:     unsigned int duty1 = 500;
   622  02BF  30F4               	movlw	244
   623  02C0  1683               	bsf	3,5	;RP0=1, select bank1
   624  02C1  1303               	bcf	3,6	;RP1=0, select bank1
   625  02C2  00A6               	movwf	main@duty1^(0+128)
   626  02C3  3001               	movlw	1
   627  02C4  00A7               	movwf	(main@duty1^(0+128)+1)
   628                           
   629                           ;main.c: 20:     unsigned char const delta = 25;;main.c: 21:     pwmSetDutyCycle1(duty1)
      +                          ;
   630  02C5  30F4               	movlw	244
   631  02C6  00A0               	movwf	pwmSetDutyCycle1@duty^(0+128)
   632  02C7  3001               	movlw	1
   633  02C8  00A1               	movwf	(pwmSetDutyCycle1@duty^(0+128)+1)
   634  02C9  120A  118A  2117  120A  118A  	fcall	_pwmSetDutyCycle1
   635  02CE                     l1745:	
   636                           
   637                           ;main.c: 25:         if (PORTBbits.RB0 == 1) {
   638  02CE  1283               	bcf	3,5	;RP0=0, select bank0
   639  02CF  1303               	bcf	3,6	;RP1=0, select bank0
   640  02D0  1C06               	btfss	6,0	;volatile
   641  02D1  2AFB               	goto	l107
   642                           
   643                           ;main.c: 26:             if (duty1 < 1023) {
   644  02D2  3003               	movlw	3
   645  02D3  1683               	bsf	3,5	;RP0=1, select bank1
   646  02D4  1303               	bcf	3,6	;RP1=0, select bank1
   647  02D5  0227               	subwf	(main@duty1+1)^(0+128),w
   648  02D6  30FF               	movlw	255
   649  02D7  1903               	skipnz
   650  02D8  0226               	subwf	main@duty1^(0+128),w
   651  02D9  1803               	skipnc
   652  02DA  2B22               	goto	l1767
   653                           
   654                           ;main.c: 27:                 pwmSetDutyCycle1(duty1 += delta);
   655  02DB  3019               	movlw	25
   656  02DC  07A6               	addwf	main@duty1^(0+128),f
   657  02DD  1803               	skipnc
   658  02DE  0AA7               	incf	(main@duty1+1)^(0+128),f
   659  02DF  3000               	movlw	0
   660  02E0  07A7               	addwf	(main@duty1+1)^(0+128),f
   661  02E1  0827               	movf	(main@duty1+1)^(0+128),w
   662  02E2  00A1               	movwf	(pwmSetDutyCycle1@duty+1)^(0+128)
   663  02E3  0826               	movf	main@duty1^(0+128),w
   664  02E4  00A0               	movwf	pwmSetDutyCycle1@duty^(0+128)
   665  02E5  120A  118A  2117  120A  118A  	fcall	_pwmSetDutyCycle1
   666                           
   667                           ;main.c: 28:                 PORTDbits.RD0 = 1;
   668  02EA  1283               	bcf	3,5	;RP0=0, select bank0
   669  02EB  1303               	bcf	3,6	;RP1=0, select bank0
   670  02EC  1408               	bsf	8,0	;volatile
   671                           
   672                           ;main.c: 29:                 _delay((unsigned long)((100)*(4000000/4000.0)));
   673  02ED  3082               	movlw	130
   674  02EE  1683               	bsf	3,5	;RP0=1, select bank1
   675  02EF  1303               	bcf	3,6	;RP1=0, select bank1
   676  02F0  00A5               	movwf	(??_main^(0+128)+1)
   677  02F1  30DD               	movlw	221
   678  02F2  00A4               	movwf	??_main^(0+128)
   679  02F3                     u2337:	
   680  02F3  0BA4               	decfsz	??_main^(0+128),f
   681  02F4  2AF3               	goto	u2337
   682  02F5  0BA5               	decfsz	(??_main^(0+128)+1),f
   683  02F6  2AF3               	goto	u2337
   684                           
   685                           ;main.c: 30:                 PORTDbits.RD0 = 0;
   686  02F7  1283               	bcf	3,5	;RP0=0, select bank0
   687  02F8  1303               	bcf	3,6	;RP1=0, select bank0
   688  02F9  1008               	bcf	8,0	;volatile
   689  02FA  2B22               	goto	l1767
   690  02FB                     l107:	
   691  02FB  1C86               	btfss	6,1	;volatile
   692  02FC  2B22               	goto	l1767
   693                           
   694                           ;main.c: 34:             if (duty1 > 0) {
   695  02FD  1683               	bsf	3,5	;RP0=1, select bank1
   696  02FE  1303               	bcf	3,6	;RP1=0, select bank1
   697  02FF  0826               	movf	main@duty1^(0+128),w
   698  0300  0427               	iorwf	(main@duty1+1)^(0+128),w
   699  0301  1903               	btfsc	3,2
   700  0302  2B22               	goto	l1767
   701                           
   702                           ;main.c: 35:                 pwmSetDutyCycle1(duty1 -= delta);
   703  0303  3019               	movlw	25
   704  0304  02A6               	subwf	main@duty1^(0+128),f
   705  0305  3000               	movlw	0
   706  0306  1C03               	skipc
   707  0307  03A7               	decf	(main@duty1+1)^(0+128),f
   708  0308  02A7               	subwf	(main@duty1+1)^(0+128),f
   709  0309  0827               	movf	(main@duty1+1)^(0+128),w
   710  030A  00A1               	movwf	(pwmSetDutyCycle1@duty+1)^(0+128)
   711  030B  0826               	movf	main@duty1^(0+128),w
   712  030C  00A0               	movwf	pwmSetDutyCycle1@duty^(0+128)
   713  030D  120A  118A  2117  120A  118A  	fcall	_pwmSetDutyCycle1
   714                           
   715                           ;main.c: 36:                 PORTDbits.RD1 = 1;
   716  0312  1283               	bcf	3,5	;RP0=0, select bank0
   717  0313  1303               	bcf	3,6	;RP1=0, select bank0
   718  0314  1488               	bsf	8,1	;volatile
   719                           
   720                           ;main.c: 37:                 _delay((unsigned long)((100)*(4000000/4000.0)));
   721  0315  3082               	movlw	130
   722  0316  1683               	bsf	3,5	;RP0=1, select bank1
   723  0317  1303               	bcf	3,6	;RP1=0, select bank1
   724  0318  00A5               	movwf	(??_main^(0+128)+1)
   725  0319  30DD               	movlw	221
   726  031A  00A4               	movwf	??_main^(0+128)
   727  031B                     u2347:	
   728  031B  0BA4               	decfsz	??_main^(0+128),f
   729  031C  2B1B               	goto	u2347
   730  031D  0BA5               	decfsz	(??_main^(0+128)+1),f
   731  031E  2B1B               	goto	u2347
   732                           
   733                           ;main.c: 38:                 PORTDbits.RD1 = 0;
   734  031F  1283               	bcf	3,5	;RP0=0, select bank0
   735  0320  1303               	bcf	3,6	;RP1=0, select bank0
   736  0321  1088               	bcf	8,1	;volatile
   737  0322                     l1767:	
   738                           
   739                           ;main.c: 42:         pwmSetDutyCycle2(adcRead(0));
   740  0322  3000               	movlw	0
   741  0323  00F0               	movwf	adcRead@adcChannel
   742  0324  00F1               	movwf	adcRead@adcChannel+1
   743  0325  120A  158A  2700  120A  118A  	fcall	_adcRead
   744  032A  0871               	movf	?_adcRead+1,w
   745  032B  1683               	bsf	3,5	;RP0=1, select bank1
   746  032C  1303               	bcf	3,6	;RP1=0, select bank1
   747  032D  00A1               	movwf	(pwmSetDutyCycle2@duty+1)^(0+128)
   748  032E  0870               	movf	?_adcRead,w
   749  032F  00A0               	movwf	pwmSetDutyCycle2@duty^(0+128)
   750  0330  120A  118A  21CD  120A  118A  	fcall	_pwmSetDutyCycle2
   751                           
   752                           ;main.c: 43:         _delay((unsigned long)((10)*(4000000/4000.0)));
   753  0335  300D               	movlw	13
   754  0336  1683               	bsf	3,5	;RP0=1, select bank1
   755  0337  1303               	bcf	3,6	;RP1=0, select bank1
   756  0338  00A5               	movwf	(??_main^(0+128)+1)
   757  0339  30FB               	movlw	251
   758  033A  00A4               	movwf	??_main^(0+128)
   759  033B                     u2357:	
   760  033B  0BA4               	decfsz	??_main^(0+128),f
   761  033C  2B3B               	goto	u2357
   762  033D  0BA5               	decfsz	(??_main^(0+128)+1),f
   763  033E  2B3B               	goto	u2357
   764                           
   765                           ;main.c: 45:     }
   766  033F  2ACE               	goto	l1745
   767  0340                     __end_of_main:	
   768                           
   769                           	psect	text1
   770  01CD                     __ptext1:	
   771 ;; *************** function _pwmSetDutyCycle2 *****************
   772 ;; Defined at:
   773 ;;		line 29 in file "./pwm.h"
   774 ;; Parameters:    Size  Location     Type
   775 ;;  duty            2    0[BANK1 ] unsigned int 
   776 ;; Auto vars:     Size  Location     Type
   777 ;;		None
   778 ;; Return value:  Size  Location     Type
   779 ;;                  1    wreg      void 
   780 ;; Registers used:
   781 ;;		wreg, status,2, status,0, btemp+1, pclath, cstack
   782 ;; Tracked objects:
   783 ;;		On entry : 0/0
   784 ;;		On exit  : 0/0
   785 ;;		Unchanged: 0/0
   786 ;; Data sizes:     COMMON   BANK0   BANK1   BANK3   BANK2
   787 ;;      Params:         0       0       2       0       0
   788 ;;      Locals:         0       0       0       0       0
   789 ;;      Temps:          0       0       2       0       0
   790 ;;      Totals:         0       0       4       0       0
   791 ;;Total ram usage:        4 bytes
   792 ;; Hardware stack levels used:    1
   793 ;; Hardware stack levels required when called:    2
   794 ;; This function calls:
   795 ;;		___aldiv
   796 ;;		___fldiv
   797 ;;		___flmul
   798 ;;		___fltol
   799 ;;		___xxtofl
   800 ;; This function is called by:
   801 ;;		_main
   802 ;; This function uses a non-reentrant model
   803 ;;
   804                           
   805                           
   806                           ;psect for function _pwmSetDutyCycle2
   807  01CD                     _pwmSetDutyCycle2:	
   808                           
   809                           ;./pwm.h: 30:     if(duty >= 1023) return;
   810                           
   811                           ;incstack = 0
   812                           ; Regs used in _pwmSetDutyCycle2: [wreg+status,2+status,0+btemp+1+pclath+cstack]
   813  01CD  3003               	movlw	3
   814  01CE  1683               	bsf	3,5	;RP0=1, select bank1
   815  01CF  1303               	bcf	3,6	;RP1=0, select bank1
   816  01D0  0221               	subwf	(pwmSetDutyCycle2@duty+1)^(0+128),w
   817  01D1  30FF               	movlw	255
   818  01D2  1903               	skipnz
   819  01D3  0220               	subwf	pwmSetDutyCycle2@duty^(0+128),w
   820  01D4  1803               	btfsc	3,0
   821  01D5  0008               	return
   822                           
   823                           ;./pwm.h: 32:     duty = ((float) duty / 1023)*(4000000 / (FREQ2 * 16));
   824  01D6  0820               	movf	pwmSetDutyCycle2@duty^(0+128),w
   825  01D7  1283               	bcf	3,5	;RP0=0, select bank0
   826  01D8  1303               	bcf	3,6	;RP1=0, select bank0
   827  01D9  00A6               	movwf	___xxtofl@val
   828  01DA  1683               	bsf	3,5	;RP0=1, select bank1
   829  01DB  1303               	bcf	3,6	;RP1=0, select bank1
   830  01DC  0821               	movf	(pwmSetDutyCycle2@duty+1)^(0+128),w
   831  01DD  1283               	bcf	3,5	;RP0=0, select bank0
   832  01DE  1303               	bcf	3,6	;RP1=0, select bank0
   833  01DF  00A7               	movwf	___xxtofl@val+1
   834  01E0  01A8               	clrf	___xxtofl@val+2
   835  01E1  01A9               	clrf	___xxtofl@val+3
   836  01E2  3000               	movlw	0
   837  01E3  120A  118A  2072  120A  118A  	fcall	___xxtofl
   838  01E8  1283               	bcf	3,5	;RP0=0, select bank0
   839  01E9  1303               	bcf	3,6	;RP1=0, select bank0
   840  01EA  0829               	movf	?___xxtofl+3,w
   841  01EB  00B7               	movwf	___fldiv@b+3
   842  01EC  0828               	movf	?___xxtofl+2,w
   843  01ED  00B6               	movwf	___fldiv@b+2
   844  01EE  0827               	movf	?___xxtofl+1,w
   845  01EF  00B5               	movwf	___fldiv@b+1
   846  01F0  0826               	movf	?___xxtofl,w
   847  01F1  00B4               	movwf	___fldiv@b
   848  01F2  3044               	movlw	68
   849  01F3  00B3               	movwf	___fldiv@a+3
   850  01F4  307F               	movlw	127
   851  01F5  00B2               	movwf	___fldiv@a+2
   852  01F6  30C0               	movlw	192
   853  01F7  00B1               	movwf	___fldiv@a+1
   854  01F8  3000               	movlw	0
   855  01F9  00B0               	movwf	___fldiv@a
   856  01FA  120A  118A  2340  120A  118A  	fcall	___fldiv
   857  01FF  1283               	bcf	3,5	;RP0=0, select bank0
   858  0200  1303               	bcf	3,6	;RP1=0, select bank0
   859  0201  0833               	movf	?___fldiv+3,w
   860  0202  00D1               	movwf	___flmul@a+3
   861  0203  0832               	movf	?___fldiv+2,w
   862  0204  00D0               	movwf	___flmul@a+2
   863  0205  0831               	movf	?___fldiv+1,w
   864  0206  00CF               	movwf	___flmul@a+1
   865  0207  0830               	movf	?___fldiv,w
   866  0208  00CE               	movwf	___flmul@a
   867  0209  3000               	movlw	0
   868  020A  00F7               	movwf	___aldiv@dividend+3
   869  020B  303D               	movlw	61
   870  020C  00F6               	movwf	___aldiv@dividend+2
   871  020D  3009               	movlw	9
   872  020E  00F5               	movwf	___aldiv@dividend+1
   873  020F  3000               	movlw	0
   874  0210  00F4               	movwf	___aldiv@dividend
   875  0211  1683               	bsf	3,5	;RP0=1, select bank1
   876  0212  1303               	bcf	3,6	;RP1=0, select bank1
   877  0213  082B               	movf	(_FREQ2+1)^(0+128),w
   878  0214  00A3               	movwf	(??_pwmSetDutyCycle2^(0+128)+1)
   879  0215  082A               	movf	_FREQ2^(0+128),w
   880  0216  00A2               	movwf	??_pwmSetDutyCycle2^(0+128)
   881  0217  0EA2               	swapf	??_pwmSetDutyCycle2^(0+128),f
   882  0218  0EA3               	swapf	(??_pwmSetDutyCycle2^(0+128)+1),f
   883  0219  30F0               	movlw	240
   884  021A  05A3               	andwf	(??_pwmSetDutyCycle2^(0+128)+1),f
   885  021B  0822               	movf	??_pwmSetDutyCycle2^(0+128),w
   886  021C  390F               	andlw	15
   887  021D  04A3               	iorwf	(??_pwmSetDutyCycle2^(0+128)+1),f
   888  021E  30F0               	movlw	240
   889  021F  05A2               	andwf	??_pwmSetDutyCycle2^(0+128),f
   890  0220  0822               	movf	??_pwmSetDutyCycle2^(0+128),w
   891  0221  00F0               	movwf	___aldiv@divisor
   892  0222  0823               	movf	(??_pwmSetDutyCycle2+1)^(0+128),w
   893  0223  00F1               	movwf	___aldiv@divisor+1
   894  0224  3000               	movlw	0
   895  0225  1BF1               	btfsc	___aldiv@divisor+1,7
   896  0226  30FF               	movlw	255
   897  0227  00F2               	movwf	___aldiv@divisor+2
   898  0228  00F3               	movwf	___aldiv@divisor+3
   899  0229  120A  158A  2771  120A  118A  	fcall	___aldiv
   900  022E  0873               	movf	?___aldiv+3,w
   901  022F  1283               	bcf	3,5	;RP0=0, select bank0
   902  0230  1303               	bcf	3,6	;RP1=0, select bank0
   903  0231  00A9               	movwf	___xxtofl@val+3
   904  0232  0872               	movf	?___aldiv+2,w
   905  0233  00A8               	movwf	___xxtofl@val+2
   906  0234  0871               	movf	?___aldiv+1,w
   907  0235  00A7               	movwf	___xxtofl@val+1
   908  0236  0870               	movf	?___aldiv,w
   909  0237  00A6               	movwf	___xxtofl@val
   910  0238  3001               	movlw	1
   911  0239  120A  118A  2072  120A  118A  	fcall	___xxtofl
   912  023E  1283               	bcf	3,5	;RP0=0, select bank0
   913  023F  1303               	bcf	3,6	;RP1=0, select bank0
   914  0240  0829               	movf	?___xxtofl+3,w
   915  0241  00CD               	movwf	___flmul@b+3
   916  0242  0828               	movf	?___xxtofl+2,w
   917  0243  00CC               	movwf	___flmul@b+2
   918  0244  0827               	movf	?___xxtofl+1,w
   919  0245  00CB               	movwf	___flmul@b+1
   920  0246  0826               	movf	?___xxtofl,w
   921  0247  00CA               	movwf	___flmul@b
   922  0248  120A  118A  24E3  120A  118A  	fcall	___flmul
   923  024D  1283               	bcf	3,5	;RP0=0, select bank0
   924  024E  1303               	bcf	3,6	;RP1=0, select bank0
   925  024F  084D               	movf	?___flmul+3,w
   926  0250  00E7               	movwf	___fltol@f1+3
   927  0251  084C               	movf	?___flmul+2,w
   928  0252  00E6               	movwf	___fltol@f1+2
   929  0253  084B               	movf	?___flmul+1,w
   930  0254  00E5               	movwf	___fltol@f1+1
   931  0255  084A               	movf	?___flmul,w
   932  0256  00E4               	movwf	___fltol@f1
   933  0257  120A  118A  2005  120A  118A  	fcall	___fltol
   934  025C  1283               	bcf	3,5	;RP0=0, select bank0
   935  025D  1303               	bcf	3,6	;RP1=0, select bank0
   936  025E  0865               	movf	?___fltol+1,w
   937  025F  1683               	bsf	3,5	;RP0=1, select bank1
   938  0260  1303               	bcf	3,6	;RP1=0, select bank1
   939  0261  00A1               	movwf	(pwmSetDutyCycle2@duty+1)^(0+128)
   940  0262  1283               	bcf	3,5	;RP0=0, select bank0
   941  0263  1303               	bcf	3,6	;RP1=0, select bank0
   942  0264  0864               	movf	?___fltol,w
   943  0265  1683               	bsf	3,5	;RP0=1, select bank1
   944  0266  1303               	bcf	3,6	;RP1=0, select bank1
   945  0267  00A0               	movwf	pwmSetDutyCycle2@duty^(0+128)
   946                           
   947                           ;./pwm.h: 33:     CCP2X = duty & 0x01;
   948  0268  1C20               	btfss	pwmSetDutyCycle2@duty^(0+128),0
   949  0269  2A6E               	goto	u2260
   950  026A  1283               	bcf	3,5	;RP0=0, select bank0
   951  026B  1303               	bcf	3,6	;RP1=0, select bank0
   952  026C  169D               	bsf	29,5	;volatile
   953  026D  2A71               	goto	l1699
   954  026E                     u2260:	
   955  026E  1283               	bcf	3,5	;RP0=0, select bank0
   956  026F  1303               	bcf	3,6	;RP1=0, select bank0
   957  0270  129D               	bcf	29,5	;volatile
   958  0271                     l1699:	
   959                           
   960                           ;./pwm.h: 34:     CCP2Y = duty & 0x02;
   961  0271  121D               	bcf	29,4	;volatile
   962                           
   963                           ;./pwm.h: 35:     CCPR2L = duty >> 2;
   964  0272  1683               	bsf	3,5	;RP0=1, select bank1
   965  0273  1303               	bcf	3,6	;RP1=0, select bank1
   966  0274  0821               	movf	(pwmSetDutyCycle2@duty+1)^(0+128),w
   967  0275  00A3               	movwf	(??_pwmSetDutyCycle2^(0+128)+1)
   968  0276  0820               	movf	pwmSetDutyCycle2@duty^(0+128),w
   969  0277  00A2               	movwf	??_pwmSetDutyCycle2^(0+128)
   970  0278  1003               	clrc
   971  0279  0CA3               	rrf	(??_pwmSetDutyCycle2^(0+128)+1),f
   972  027A  0CA2               	rrf	??_pwmSetDutyCycle2^(0+128),f
   973  027B  1003               	clrc
   974  027C  0CA3               	rrf	(??_pwmSetDutyCycle2^(0+128)+1),f
   975  027D  0CA2               	rrf	??_pwmSetDutyCycle2^(0+128),f
   976  027E  0822               	movf	??_pwmSetDutyCycle2^(0+128),w
   977  027F  1283               	bcf	3,5	;RP0=0, select bank0
   978  0280  1303               	bcf	3,6	;RP1=0, select bank0
   979  0281  009B               	movwf	27	;volatile
   980  0282  0008               	return
   981  0283                     __end_of_pwmSetDutyCycle2:	
   982                           
   983                           	psect	text2
   984  0117                     __ptext2:	
   985 ;; *************** function _pwmSetDutyCycle1 *****************
   986 ;; Defined at:
   987 ;;		line 21 in file "./pwm.h"
   988 ;; Parameters:    Size  Location     Type
   989 ;;  duty            2    0[BANK1 ] unsigned int 
   990 ;; Auto vars:     Size  Location     Type
   991 ;;		None
   992 ;; Return value:  Size  Location     Type
   993 ;;                  1    wreg      void 
   994 ;; Registers used:
   995 ;;		wreg, status,2, status,0, btemp+1, pclath, cstack
   996 ;; Tracked objects:
   997 ;;		On entry : 0/0
   998 ;;		On exit  : 0/0
   999 ;;		Unchanged: 0/0
  1000 ;; Data sizes:     COMMON   BANK0   BANK1   BANK3   BANK2
  1001 ;;      Params:         0       0       2       0       0
  1002 ;;      Locals:         0       0       0       0       0
  1003 ;;      Temps:          0       0       2       0       0
  1004 ;;      Totals:         0       0       4       0       0
  1005 ;;Total ram usage:        4 bytes
  1006 ;; Hardware stack levels used:    1
  1007 ;; Hardware stack levels required when called:    2
  1008 ;; This function calls:
  1009 ;;		___aldiv
  1010 ;;		___fldiv
  1011 ;;		___flmul
  1012 ;;		___fltol
  1013 ;;		___xxtofl
  1014 ;; This function is called by:
  1015 ;;		_main
  1016 ;; This function uses a non-reentrant model
  1017 ;;
  1018                           
  1019                           
  1020                           ;psect for function _pwmSetDutyCycle1
  1021  0117                     _pwmSetDutyCycle1:	
  1022                           
  1023                           ;./pwm.h: 22:     if(duty >= 1023) return;
  1024                           
  1025                           ;incstack = 0
  1026                           ; Regs used in _pwmSetDutyCycle1: [wreg+status,2+status,0+btemp+1+pclath+cstack]
  1027  0117  3003               	movlw	3
  1028  0118  1683               	bsf	3,5	;RP0=1, select bank1
  1029  0119  1303               	bcf	3,6	;RP1=0, select bank1
  1030  011A  0221               	subwf	(pwmSetDutyCycle1@duty+1)^(0+128),w
  1031  011B  30FF               	movlw	255
  1032  011C  1903               	skipnz
  1033  011D  0220               	subwf	pwmSetDutyCycle1@duty^(0+128),w
  1034  011E  1803               	btfsc	3,0
  1035  011F  0008               	return
  1036                           
  1037                           ;./pwm.h: 23:     duty = ((float) duty / 1023)*(4000000 / (FREQ1 * 16));
  1038  0120  0820               	movf	pwmSetDutyCycle1@duty^(0+128),w
  1039  0121  1283               	bcf	3,5	;RP0=0, select bank0
  1040  0122  1303               	bcf	3,6	;RP1=0, select bank0
  1041  0123  00A6               	movwf	___xxtofl@val
  1042  0124  1683               	bsf	3,5	;RP0=1, select bank1
  1043  0125  1303               	bcf	3,6	;RP1=0, select bank1
  1044  0126  0821               	movf	(pwmSetDutyCycle1@duty+1)^(0+128),w
  1045  0127  1283               	bcf	3,5	;RP0=0, select bank0
  1046  0128  1303               	bcf	3,6	;RP1=0, select bank0
  1047  0129  00A7               	movwf	___xxtofl@val+1
  1048  012A  01A8               	clrf	___xxtofl@val+2
  1049  012B  01A9               	clrf	___xxtofl@val+3
  1050  012C  3000               	movlw	0
  1051  012D  120A  118A  2072  120A  118A  	fcall	___xxtofl
  1052  0132  1283               	bcf	3,5	;RP0=0, select bank0
  1053  0133  1303               	bcf	3,6	;RP1=0, select bank0
  1054  0134  0829               	movf	?___xxtofl+3,w
  1055  0135  00B7               	movwf	___fldiv@b+3
  1056  0136  0828               	movf	?___xxtofl+2,w
  1057  0137  00B6               	movwf	___fldiv@b+2
  1058  0138  0827               	movf	?___xxtofl+1,w
  1059  0139  00B5               	movwf	___fldiv@b+1
  1060  013A  0826               	movf	?___xxtofl,w
  1061  013B  00B4               	movwf	___fldiv@b
  1062  013C  3044               	movlw	68
  1063  013D  00B3               	movwf	___fldiv@a+3
  1064  013E  307F               	movlw	127
  1065  013F  00B2               	movwf	___fldiv@a+2
  1066  0140  30C0               	movlw	192
  1067  0141  00B1               	movwf	___fldiv@a+1
  1068  0142  3000               	movlw	0
  1069  0143  00B0               	movwf	___fldiv@a
  1070  0144  120A  118A  2340  120A  118A  	fcall	___fldiv
  1071  0149  1283               	bcf	3,5	;RP0=0, select bank0
  1072  014A  1303               	bcf	3,6	;RP1=0, select bank0
  1073  014B  0833               	movf	?___fldiv+3,w
  1074  014C  00D1               	movwf	___flmul@a+3
  1075  014D  0832               	movf	?___fldiv+2,w
  1076  014E  00D0               	movwf	___flmul@a+2
  1077  014F  0831               	movf	?___fldiv+1,w
  1078  0150  00CF               	movwf	___flmul@a+1
  1079  0151  0830               	movf	?___fldiv,w
  1080  0152  00CE               	movwf	___flmul@a
  1081  0153  3000               	movlw	0
  1082  0154  00F7               	movwf	___aldiv@dividend+3
  1083  0155  303D               	movlw	61
  1084  0156  00F6               	movwf	___aldiv@dividend+2
  1085  0157  3009               	movlw	9
  1086  0158  00F5               	movwf	___aldiv@dividend+1
  1087  0159  3000               	movlw	0
  1088  015A  00F4               	movwf	___aldiv@dividend
  1089  015B  1683               	bsf	3,5	;RP0=1, select bank1
  1090  015C  1303               	bcf	3,6	;RP1=0, select bank1
  1091  015D  0829               	movf	(_FREQ1+1)^(0+128),w
  1092  015E  00A3               	movwf	(??_pwmSetDutyCycle1^(0+128)+1)
  1093  015F  0828               	movf	_FREQ1^(0+128),w
  1094  0160  00A2               	movwf	??_pwmSetDutyCycle1^(0+128)
  1095  0161  0EA2               	swapf	??_pwmSetDutyCycle1^(0+128),f
  1096  0162  0EA3               	swapf	(??_pwmSetDutyCycle1^(0+128)+1),f
  1097  0163  30F0               	movlw	240
  1098  0164  05A3               	andwf	(??_pwmSetDutyCycle1^(0+128)+1),f
  1099  0165  0822               	movf	??_pwmSetDutyCycle1^(0+128),w
  1100  0166  390F               	andlw	15
  1101  0167  04A3               	iorwf	(??_pwmSetDutyCycle1^(0+128)+1),f
  1102  0168  30F0               	movlw	240
  1103  0169  05A2               	andwf	??_pwmSetDutyCycle1^(0+128),f
  1104  016A  0822               	movf	??_pwmSetDutyCycle1^(0+128),w
  1105  016B  00F0               	movwf	___aldiv@divisor
  1106  016C  0823               	movf	(??_pwmSetDutyCycle1+1)^(0+128),w
  1107  016D  00F1               	movwf	___aldiv@divisor+1
  1108  016E  3000               	movlw	0
  1109  016F  1BF1               	btfsc	___aldiv@divisor+1,7
  1110  0170  30FF               	movlw	255
  1111  0171  00F2               	movwf	___aldiv@divisor+2
  1112  0172  00F3               	movwf	___aldiv@divisor+3
  1113  0173  120A  158A  2771  120A  118A  	fcall	___aldiv
  1114  0178  0873               	movf	?___aldiv+3,w
  1115  0179  1283               	bcf	3,5	;RP0=0, select bank0
  1116  017A  1303               	bcf	3,6	;RP1=0, select bank0
  1117  017B  00A9               	movwf	___xxtofl@val+3
  1118  017C  0872               	movf	?___aldiv+2,w
  1119  017D  00A8               	movwf	___xxtofl@val+2
  1120  017E  0871               	movf	?___aldiv+1,w
  1121  017F  00A7               	movwf	___xxtofl@val+1
  1122  0180  0870               	movf	?___aldiv,w
  1123  0181  00A6               	movwf	___xxtofl@val
  1124  0182  3001               	movlw	1
  1125  0183  120A  118A  2072  120A  118A  	fcall	___xxtofl
  1126  0188  1283               	bcf	3,5	;RP0=0, select bank0
  1127  0189  1303               	bcf	3,6	;RP1=0, select bank0
  1128  018A  0829               	movf	?___xxtofl+3,w
  1129  018B  00CD               	movwf	___flmul@b+3
  1130  018C  0828               	movf	?___xxtofl+2,w
  1131  018D  00CC               	movwf	___flmul@b+2
  1132  018E  0827               	movf	?___xxtofl+1,w
  1133  018F  00CB               	movwf	___flmul@b+1
  1134  0190  0826               	movf	?___xxtofl,w
  1135  0191  00CA               	movwf	___flmul@b
  1136  0192  120A  118A  24E3  120A  118A  	fcall	___flmul
  1137  0197  1283               	bcf	3,5	;RP0=0, select bank0
  1138  0198  1303               	bcf	3,6	;RP1=0, select bank0
  1139  0199  084D               	movf	?___flmul+3,w
  1140  019A  00E7               	movwf	___fltol@f1+3
  1141  019B  084C               	movf	?___flmul+2,w
  1142  019C  00E6               	movwf	___fltol@f1+2
  1143  019D  084B               	movf	?___flmul+1,w
  1144  019E  00E5               	movwf	___fltol@f1+1
  1145  019F  084A               	movf	?___flmul,w
  1146  01A0  00E4               	movwf	___fltol@f1
  1147  01A1  120A  118A  2005  120A  118A  	fcall	___fltol
  1148  01A6  1283               	bcf	3,5	;RP0=0, select bank0
  1149  01A7  1303               	bcf	3,6	;RP1=0, select bank0
  1150  01A8  0865               	movf	?___fltol+1,w
  1151  01A9  1683               	bsf	3,5	;RP0=1, select bank1
  1152  01AA  1303               	bcf	3,6	;RP1=0, select bank1
  1153  01AB  00A1               	movwf	(pwmSetDutyCycle1@duty+1)^(0+128)
  1154  01AC  1283               	bcf	3,5	;RP0=0, select bank0
  1155  01AD  1303               	bcf	3,6	;RP1=0, select bank0
  1156  01AE  0864               	movf	?___fltol,w
  1157  01AF  1683               	bsf	3,5	;RP0=1, select bank1
  1158  01B0  1303               	bcf	3,6	;RP1=0, select bank1
  1159  01B1  00A0               	movwf	pwmSetDutyCycle1@duty^(0+128)
  1160                           
  1161                           ;./pwm.h: 24:     CCP1X = duty & 0x01;
  1162  01B2  1C20               	btfss	pwmSetDutyCycle1@duty^(0+128),0
  1163  01B3  29B8               	goto	u2230
  1164  01B4  1283               	bcf	3,5	;RP0=0, select bank0
  1165  01B5  1303               	bcf	3,6	;RP1=0, select bank0
  1166  01B6  1697               	bsf	23,5	;volatile
  1167  01B7  29BB               	goto	l1687
  1168  01B8                     u2230:	
  1169  01B8  1283               	bcf	3,5	;RP0=0, select bank0
  1170  01B9  1303               	bcf	3,6	;RP1=0, select bank0
  1171  01BA  1297               	bcf	23,5	;volatile
  1172  01BB                     l1687:	
  1173                           
  1174                           ;./pwm.h: 25:     CCP1Y = duty & 0x02;
  1175  01BB  1217               	bcf	23,4	;volatile
  1176                           
  1177                           ;./pwm.h: 26:     CCPR1L = duty >> 2;
  1178  01BC  1683               	bsf	3,5	;RP0=1, select bank1
  1179  01BD  1303               	bcf	3,6	;RP1=0, select bank1
  1180  01BE  0821               	movf	(pwmSetDutyCycle1@duty+1)^(0+128),w
  1181  01BF  00A3               	movwf	(??_pwmSetDutyCycle1^(0+128)+1)
  1182  01C0  0820               	movf	pwmSetDutyCycle1@duty^(0+128),w
  1183  01C1  00A2               	movwf	??_pwmSetDutyCycle1^(0+128)
  1184  01C2  1003               	clrc
  1185  01C3  0CA3               	rrf	(??_pwmSetDutyCycle1^(0+128)+1),f
  1186  01C4  0CA2               	rrf	??_pwmSetDutyCycle1^(0+128),f
  1187  01C5  1003               	clrc
  1188  01C6  0CA3               	rrf	(??_pwmSetDutyCycle1^(0+128)+1),f
  1189  01C7  0CA2               	rrf	??_pwmSetDutyCycle1^(0+128),f
  1190  01C8  0822               	movf	??_pwmSetDutyCycle1^(0+128),w
  1191  01C9  1283               	bcf	3,5	;RP0=0, select bank0
  1192  01CA  1303               	bcf	3,6	;RP1=0, select bank0
  1193  01CB  0095               	movwf	21	;volatile
  1194  01CC  0008               	return
  1195  01CD                     __end_of_pwmSetDutyCycle1:	
  1196                           
  1197                           	psect	text3
  1198  0072                     __ptext3:	
  1199 ;; *************** function ___xxtofl *****************
  1200 ;; Defined at:
  1201 ;;		line 10 in file "C:\Program Files (x86)\Microchip\xc8\v2.05\pic\sources\c90\common\xxtofl.c"
  1202 ;; Parameters:    Size  Location     Type
  1203 ;;  sign            1    wreg     unsigned char 
  1204 ;;  val             4    6[BANK0 ] long 
  1205 ;; Auto vars:     Size  Location     Type
  1206 ;;  sign            1   10[BANK0 ] unsigned char 
  1207 ;;  arg             4   12[BANK0 ] unsigned long 
  1208 ;;  exp             1   11[BANK0 ] unsigned char 
  1209 ;; Return value:  Size  Location     Type
  1210 ;;                  4    6[BANK0 ] unsigned char 
  1211 ;; Registers used:
  1212 ;;		wreg, status,2, status,0
  1213 ;; Tracked objects:
  1214 ;;		On entry : 0/0
  1215 ;;		On exit  : 0/0
  1216 ;;		Unchanged: 0/0
  1217 ;; Data sizes:     COMMON   BANK0   BANK1   BANK3   BANK2
  1218 ;;      Params:         0       4       0       0       0
  1219 ;;      Locals:         0       6       0       0       0
  1220 ;;      Temps:          4       0       0       0       0
  1221 ;;      Totals:         4      10       0       0       0
  1222 ;;Total ram usage:       14 bytes
  1223 ;; Hardware stack levels used:    1
  1224 ;; This function calls:
  1225 ;;		Nothing
  1226 ;; This function is called by:
  1227 ;;		_pwmSetDutyCycle1
  1228 ;;		_pwmSetDutyCycle2
  1229 ;; This function uses a non-reentrant model
  1230 ;;
  1231                           
  1232                           
  1233                           ;psect for function ___xxtofl
  1234  0072                     ___xxtofl:	
  1235                           
  1236                           ;incstack = 0
  1237                           ; Regs used in ___xxtofl: [wreg+status,2+status,0]
  1238                           ;___xxtofl@sign stored from wreg
  1239  0072  1283               	bcf	3,5	;RP0=0, select bank0
  1240  0073  1303               	bcf	3,6	;RP1=0, select bank0
  1241  0074  00AA               	movwf	___xxtofl@sign
  1242  0075  082A               	movf	___xxtofl@sign,w
  1243  0076  1D03               	btfss	3,2
  1244  0077  1FA9               	btfss	___xxtofl@val+3,7
  1245  0078  2889               	goto	l1629
  1246  0079  0926               	comf	___xxtofl@val,w
  1247  007A  00AC               	movwf	___xxtofl@arg
  1248  007B  0927               	comf	___xxtofl@val+1,w
  1249  007C  00AD               	movwf	___xxtofl@arg+1
  1250  007D  0928               	comf	___xxtofl@val+2,w
  1251  007E  00AE               	movwf	___xxtofl@arg+2
  1252  007F  0929               	comf	___xxtofl@val+3,w
  1253  0080  00AF               	movwf	___xxtofl@arg+3
  1254  0081  0AAC               	incf	___xxtofl@arg,f
  1255  0082  1903               	skipnz
  1256  0083  0AAD               	incf	___xxtofl@arg+1,f
  1257  0084  1903               	skipnz
  1258  0085  0AAE               	incf	___xxtofl@arg+2,f
  1259  0086  1903               	skipnz
  1260  0087  0AAF               	incf	___xxtofl@arg+3,f
  1261  0088  2891               	goto	l626
  1262  0089                     l1629:	
  1263  0089  0829               	movf	___xxtofl@val+3,w
  1264  008A  00AF               	movwf	___xxtofl@arg+3
  1265  008B  0828               	movf	___xxtofl@val+2,w
  1266  008C  00AE               	movwf	___xxtofl@arg+2
  1267  008D  0827               	movf	___xxtofl@val+1,w
  1268  008E  00AD               	movwf	___xxtofl@arg+1
  1269  008F  0826               	movf	___xxtofl@val,w
  1270  0090  00AC               	movwf	___xxtofl@arg
  1271  0091                     l626:	
  1272  0091  0829               	movf	___xxtofl@val+3,w
  1273  0092  0428               	iorwf	___xxtofl@val+2,w
  1274  0093  0427               	iorwf	___xxtofl@val+1,w
  1275  0094  0426               	iorwf	___xxtofl@val,w
  1276  0095  1D03               	skipz
  1277  0096  28A0               	goto	l1635
  1278  0097  3000               	movlw	0
  1279  0098  00A9               	movwf	?___xxtofl+3
  1280  0099  3000               	movlw	0
  1281  009A  00A8               	movwf	?___xxtofl+2
  1282  009B  3000               	movlw	0
  1283  009C  00A7               	movwf	?___xxtofl+1
  1284  009D  3000               	movlw	0
  1285  009E  00A6               	movwf	?___xxtofl
  1286  009F  0008               	return
  1287  00A0                     l1635:	
  1288  00A0  3096               	movlw	150
  1289  00A1  00F9               	movwf	??___xxtofl
  1290  00A2  0879               	movf	??___xxtofl,w
  1291  00A3  00AB               	movwf	___xxtofl@exp
  1292  00A4                     l1639:	
  1293  00A4  30FE               	movlw	254
  1294  00A5  052F               	andwf	___xxtofl@arg+3,w
  1295  00A6  1903               	btfsc	3,2
  1296  00A7  28D1               	goto	l632
  1297  00A8  3001               	movlw	1
  1298  00A9  00F9               	movwf	??___xxtofl
  1299  00AA  0879               	movf	??___xxtofl,w
  1300  00AB  07AB               	addwf	___xxtofl@exp,f
  1301  00AC  3001               	movlw	1
  1302  00AD                     u2115:	
  1303  00AD  1003               	clrc
  1304  00AE  0CAF               	rrf	___xxtofl@arg+3,f
  1305  00AF  0CAE               	rrf	___xxtofl@arg+2,f
  1306  00B0  0CAD               	rrf	___xxtofl@arg+1,f
  1307  00B1  0CAC               	rrf	___xxtofl@arg,f
  1308  00B2  3EFF               	addlw	-1
  1309  00B3  1D03               	skipz
  1310  00B4  28AD               	goto	u2115
  1311  00B5  28A4               	goto	l1639
  1312  00B6                     l1641:	
  1313  00B6  3001               	movlw	1
  1314  00B7  00F9               	movwf	??___xxtofl
  1315  00B8  0879               	movf	??___xxtofl,w
  1316  00B9  07AB               	addwf	___xxtofl@exp,f
  1317  00BA  3001               	movlw	1
  1318  00BB  07AC               	addwf	___xxtofl@arg,f
  1319  00BC  3000               	movlw	0
  1320  00BD  1803               	skipnc
  1321  00BE  3001               	movlw	1
  1322  00BF  07AD               	addwf	___xxtofl@arg+1,f
  1323  00C0  3000               	movlw	0
  1324  00C1  1803               	skipnc
  1325  00C2  3001               	movlw	1
  1326  00C3  07AE               	addwf	___xxtofl@arg+2,f
  1327  00C4  3000               	movlw	0
  1328  00C5  1803               	skipnc
  1329  00C6  3001               	movlw	1
  1330  00C7  07AF               	addwf	___xxtofl@arg+3,f
  1331  00C8  3001               	movlw	1
  1332  00C9                     u2135:	
  1333  00C9  1003               	clrc
  1334  00CA  0CAF               	rrf	___xxtofl@arg+3,f
  1335  00CB  0CAE               	rrf	___xxtofl@arg+2,f
  1336  00CC  0CAD               	rrf	___xxtofl@arg+1,f
  1337  00CD  0CAC               	rrf	___xxtofl@arg,f
  1338  00CE  3EFF               	addlw	-1
  1339  00CF  1D03               	skipz
  1340  00D0  28C9               	goto	u2135
  1341  00D1                     l632:	
  1342  00D1  30FF               	movlw	255
  1343  00D2  052F               	andwf	___xxtofl@arg+3,w
  1344  00D3  1903               	btfsc	3,2
  1345  00D4  28E5               	goto	l1649
  1346  00D5  28B6               	goto	l1641
  1347  00D6                     l1651:	
  1348  00D6  3002               	movlw	2
  1349  00D7  022B               	subwf	___xxtofl@exp,w
  1350  00D8  1C03               	btfss	3,0
  1351  00D9  28E7               	goto	l639
  1352  00DA  3001               	movlw	1
  1353  00DB  02AB               	subwf	___xxtofl@exp,f
  1354  00DC  3001               	movlw	1
  1355  00DD  00F9               	movwf	??___xxtofl
  1356  00DE                     u2155:	
  1357  00DE  1003               	clrc
  1358  00DF  0DAC               	rlf	___xxtofl@arg,f
  1359  00E0  0DAD               	rlf	___xxtofl@arg+1,f
  1360  00E1  0DAE               	rlf	___xxtofl@arg+2,f
  1361  00E2  0DAF               	rlf	___xxtofl@arg+3,f
  1362  00E3  0BF9               	decfsz	??___xxtofl,f
  1363  00E4  28DE               	goto	u2155
  1364  00E5                     l1649:	
  1365  00E5  1FAE               	btfss	___xxtofl@arg+2,7
  1366  00E6  28D6               	goto	l1651
  1367  00E7                     l639:	
  1368  00E7  182B               	btfsc	___xxtofl@exp,0
  1369  00E8  28F1               	goto	l640
  1370  00E9  30FF               	movlw	255
  1371  00EA  05AC               	andwf	___xxtofl@arg,f
  1372  00EB  30FF               	movlw	255
  1373  00EC  05AD               	andwf	___xxtofl@arg+1,f
  1374  00ED  307F               	movlw	127
  1375  00EE  05AE               	andwf	___xxtofl@arg+2,f
  1376  00EF  30FF               	movlw	255
  1377  00F0  05AF               	andwf	___xxtofl@arg+3,f
  1378  00F1                     l640:	
  1379  00F1  1003               	clrc
  1380  00F2  0CAB               	rrf	___xxtofl@exp,f
  1381  00F3  082B               	movf	___xxtofl@exp,w
  1382  00F4  00F9               	movwf	??___xxtofl
  1383  00F5  01FA               	clrf	??___xxtofl+1
  1384  00F6  01FB               	clrf	??___xxtofl+2
  1385  00F7  01FC               	clrf	??___xxtofl+3
  1386  00F8  3018               	movlw	24
  1387  00F9                     u2195:	
  1388  00F9  1003               	clrc
  1389  00FA  0DF9               	rlf	??___xxtofl,f
  1390  00FB  0DFA               	rlf	??___xxtofl+1,f
  1391  00FC  0DFB               	rlf	??___xxtofl+2,f
  1392  00FD  0DFC               	rlf	??___xxtofl+3,f
  1393  00FE  3EFF               	addlw	-1
  1394  00FF  1D03               	skipz
  1395  0100  28F9               	goto	u2195
  1396  0101  0879               	movf	??___xxtofl,w
  1397  0102  04AC               	iorwf	___xxtofl@arg,f
  1398  0103  087A               	movf	??___xxtofl+1,w
  1399  0104  04AD               	iorwf	___xxtofl@arg+1,f
  1400  0105  087B               	movf	??___xxtofl+2,w
  1401  0106  04AE               	iorwf	___xxtofl@arg+2,f
  1402  0107  087C               	movf	??___xxtofl+3,w
  1403  0108  04AF               	iorwf	___xxtofl@arg+3,f
  1404  0109  082A               	movf	___xxtofl@sign,w
  1405  010A  1D03               	btfss	3,2
  1406  010B  1FA9               	btfss	___xxtofl@val+3,7
  1407  010C  290E               	goto	l1663
  1408  010D  17AF               	bsf	___xxtofl@arg+3,7
  1409  010E                     l1663:	
  1410  010E  082F               	movf	___xxtofl@arg+3,w
  1411  010F  00A9               	movwf	?___xxtofl+3
  1412  0110  082E               	movf	___xxtofl@arg+2,w
  1413  0111  00A8               	movwf	?___xxtofl+2
  1414  0112  082D               	movf	___xxtofl@arg+1,w
  1415  0113  00A7               	movwf	?___xxtofl+1
  1416  0114  082C               	movf	___xxtofl@arg,w
  1417  0115  00A6               	movwf	?___xxtofl
  1418  0116  0008               	return
  1419  0117                     __end_of___xxtofl:	
  1420                           
  1421                           	psect	text4
  1422  0005                     __ptext4:	
  1423 ;; *************** function ___fltol *****************
  1424 ;; Defined at:
  1425 ;;		line 43 in file "C:\Program Files (x86)\Microchip\xc8\v2.05\pic\sources\c90\common\fltol.c"
  1426 ;; Parameters:    Size  Location     Type
  1427 ;;  f1              4   68[BANK0 ] unsigned char 
  1428 ;; Auto vars:     Size  Location     Type
  1429 ;;  exp1            1   78[BANK0 ] unsigned char 
  1430 ;;  sign1           1   77[BANK0 ] unsigned char 
  1431 ;; Return value:  Size  Location     Type
  1432 ;;                  4   68[BANK0 ] long 
  1433 ;; Registers used:
  1434 ;;		wreg, status,2, status,0
  1435 ;; Tracked objects:
  1436 ;;		On entry : 0/0
  1437 ;;		On exit  : 0/0
  1438 ;;		Unchanged: 0/0
  1439 ;; Data sizes:     COMMON   BANK0   BANK1   BANK3   BANK2
  1440 ;;      Params:         0       4       0       0       0
  1441 ;;      Locals:         0       2       0       0       0
  1442 ;;      Temps:          0       5       0       0       0
  1443 ;;      Totals:         0      11       0       0       0
  1444 ;;Total ram usage:       11 bytes
  1445 ;; Hardware stack levels used:    1
  1446 ;; This function calls:
  1447 ;;		Nothing
  1448 ;; This function is called by:
  1449 ;;		_pwmSetDutyCycle1
  1450 ;;		_pwmSetDutyCycle2
  1451 ;; This function uses a non-reentrant model
  1452 ;;
  1453                           
  1454                           
  1455                           ;psect for function ___fltol
  1456  0005                     ___fltol:	
  1457                           
  1458                           ;incstack = 0
  1459                           ; Regs used in ___fltol: [wreg+status,2+status,0]
  1460  0005  1003               	clrc
  1461  0006  1283               	bcf	3,5	;RP0=0, select bank0
  1462  0007  1303               	bcf	3,6	;RP1=0, select bank0
  1463  0008  0D66               	rlf	___fltol@f1+2,w
  1464  0009  0D67               	rlf	___fltol@f1+3,w
  1465  000A  00E8               	movwf	??___fltol
  1466  000B  0868               	movf	??___fltol,w
  1467  000C  00EE               	movwf	___fltol@exp1
  1468  000D  086E               	movf	___fltol@exp1,w
  1469  000E  1D03               	btfss	3,2
  1470  000F  2819               	goto	l1311
  1471  0010                     l1307:	
  1472  0010  3000               	movlw	0
  1473  0011  00E7               	movwf	?___fltol+3
  1474  0012  3000               	movlw	0
  1475  0013  00E6               	movwf	?___fltol+2
  1476  0014  3000               	movlw	0
  1477  0015  00E5               	movwf	?___fltol+1
  1478  0016  3000               	movlw	0
  1479  0017  00E4               	movwf	?___fltol
  1480  0018  0008               	return
  1481  0019                     l1311:	
  1482  0019  0864               	movf	___fltol@f1,w
  1483  001A  00E8               	movwf	??___fltol
  1484  001B  0865               	movf	___fltol@f1+1,w
  1485  001C  00E9               	movwf	??___fltol+1
  1486  001D  0866               	movf	___fltol@f1+2,w
  1487  001E  00EA               	movwf	??___fltol+2
  1488  001F  0867               	movf	___fltol@f1+3,w
  1489  0020  00EB               	movwf	??___fltol+3
  1490  0021  301F               	movlw	31
  1491  0022                     u1335:	
  1492  0022  1003               	clrc
  1493  0023  0CEB               	rrf	??___fltol+3,f
  1494  0024  0CEA               	rrf	??___fltol+2,f
  1495  0025  0CE9               	rrf	??___fltol+1,f
  1496  0026  0CE8               	rrf	??___fltol,f
  1497  0027  3EFF               	addlw	-1
  1498  0028  1D03               	skipz
  1499  0029  2822               	goto	u1335
  1500  002A  0868               	movf	??___fltol,w
  1501  002B  00EC               	movwf	??___fltol+4
  1502  002C  086C               	movf	??___fltol+4,w
  1503  002D  00ED               	movwf	___fltol@sign1
  1504  002E  17E6               	bsf	___fltol@f1+2,7
  1505  002F  30FF               	movlw	255
  1506  0030  05E4               	andwf	___fltol@f1,f
  1507  0031  30FF               	movlw	255
  1508  0032  05E5               	andwf	___fltol@f1+1,f
  1509  0033  30FF               	movlw	255
  1510  0034  05E6               	andwf	___fltol@f1+2,f
  1511  0035  3000               	movlw	0
  1512  0036  05E7               	andwf	___fltol@f1+3,f
  1513  0037  3096               	movlw	150
  1514  0038  02EE               	subwf	___fltol@exp1,f
  1515  0039  1FEE               	btfss	___fltol@exp1,7
  1516  003A  2850               	goto	l1329
  1517  003B  086E               	movf	___fltol@exp1,w
  1518  003C  3A80               	xorlw	128
  1519  003D  3E97               	addlw	151
  1520  003E  1C03               	btfss	3,0
  1521  003F  2810               	goto	l1307
  1522  0040                     l1327:	
  1523  0040  3001               	movlw	1
  1524  0041                     u1365:	
  1525  0041  1003               	clrc
  1526  0042  0CE7               	rrf	___fltol@f1+3,f
  1527  0043  0CE6               	rrf	___fltol@f1+2,f
  1528  0044  0CE5               	rrf	___fltol@f1+1,f
  1529  0045  0CE4               	rrf	___fltol@f1,f
  1530  0046  3EFF               	addlw	-1
  1531  0047  1D03               	skipz
  1532  0048  2841               	goto	u1365
  1533  0049  3001               	movlw	1
  1534  004A  00E8               	movwf	??___fltol
  1535  004B  0868               	movf	??___fltol,w
  1536  004C  07EE               	addwf	___fltol@exp1,f
  1537  004D  1903               	btfsc	3,2
  1538  004E  2863               	goto	l1337
  1539  004F  2840               	goto	l1327
  1540  0050                     l1329:	
  1541  0050  3020               	movlw	32
  1542  0051  026E               	subwf	___fltol@exp1,w
  1543  0052  1803               	btfsc	3,0
  1544  0053  2810               	goto	l1307
  1545  0054                     l392:	
  1546  0054  086E               	movf	___fltol@exp1,w
  1547  0055  1903               	btfsc	3,2
  1548  0056  2863               	goto	l1337
  1549  0057  3001               	movlw	1
  1550  0058  00E8               	movwf	??___fltol
  1551  0059                     u1395:	
  1552  0059  1003               	clrc
  1553  005A  0DE4               	rlf	___fltol@f1,f
  1554  005B  0DE5               	rlf	___fltol@f1+1,f
  1555  005C  0DE6               	rlf	___fltol@f1+2,f
  1556  005D  0DE7               	rlf	___fltol@f1+3,f
  1557  005E  0BE8               	decfsz	??___fltol,f
  1558  005F  2859               	goto	u1395
  1559  0060  3001               	movlw	1
  1560  0061  02EE               	subwf	___fltol@exp1,f
  1561  0062  2854               	goto	l392
  1562  0063                     l1337:	
  1563  0063  086D               	movf	___fltol@sign1,w
  1564  0064  1903               	btfsc	3,2
  1565  0065  0008               	return
  1566  0066  09E4               	comf	___fltol@f1,f
  1567  0067  09E5               	comf	___fltol@f1+1,f
  1568  0068  09E6               	comf	___fltol@f1+2,f
  1569  0069  09E7               	comf	___fltol@f1+3,f
  1570  006A  0AE4               	incf	___fltol@f1,f
  1571  006B  1903               	skipnz
  1572  006C  0AE5               	incf	___fltol@f1+1,f
  1573  006D  1903               	skipnz
  1574  006E  0AE6               	incf	___fltol@f1+2,f
  1575  006F  1903               	skipnz
  1576  0070  0AE7               	incf	___fltol@f1+3,f
  1577  0071  0008               	return
  1578  0072                     __end_of___fltol:	
  1579                           
  1580                           	psect	text5
  1581  04E3                     __ptext5:	
  1582 ;; *************** function ___flmul *****************
  1583 ;; Defined at:
  1584 ;;		line 8 in file "C:\Program Files (x86)\Microchip\xc8\v2.05\pic\sources\c90\common\sprcmul.c"
  1585 ;; Parameters:    Size  Location     Type
  1586 ;;  b               4   42[BANK0 ] long 
  1587 ;;  a               4   46[BANK0 ] long 
  1588 ;; Auto vars:     Size  Location     Type
  1589 ;;  prod            4   62[BANK0 ] struct .
  1590 ;;  grs             4   56[BANK0 ] unsigned long 
  1591 ;;  temp            2   66[BANK0 ] struct .
  1592 ;;  bexp            1   61[BANK0 ] unsigned char 
  1593 ;;  aexp            1   60[BANK0 ] unsigned char 
  1594 ;;  sign            1   55[BANK0 ] unsigned char 
  1595 ;; Return value:  Size  Location     Type
  1596 ;;                  4   42[BANK0 ] unsigned char 
  1597 ;; Registers used:
  1598 ;;		wreg, status,2, status,0, btemp+1, pclath, cstack
  1599 ;; Tracked objects:
  1600 ;;		On entry : 0/0
  1601 ;;		On exit  : 0/0
  1602 ;;		Unchanged: 0/0
  1603 ;; Data sizes:     COMMON   BANK0   BANK1   BANK3   BANK2
  1604 ;;      Params:         0       8       0       0       0
  1605 ;;      Locals:         0      13       0       0       0
  1606 ;;      Temps:          0       5       0       0       0
  1607 ;;      Totals:         0      26       0       0       0
  1608 ;;Total ram usage:       26 bytes
  1609 ;; Hardware stack levels used:    1
  1610 ;; Hardware stack levels required when called:    1
  1611 ;; This function calls:
  1612 ;;		__Umul8_16
  1613 ;; This function is called by:
  1614 ;;		_pwmSetDutyCycle1
  1615 ;;		_pwmSetDutyCycle2
  1616 ;; This function uses a non-reentrant model
  1617 ;;
  1618                           
  1619                           
  1620                           ;psect for function ___flmul
  1621  04E3                     ___flmul:	
  1622                           
  1623                           ;incstack = 0
  1624                           ; Regs used in ___flmul: [wreg+status,2+status,0+btemp+1+pclath+cstack]
  1625  04E3  1283               	bcf	3,5	;RP0=0, select bank0
  1626  04E4  1303               	bcf	3,6	;RP1=0, select bank0
  1627  04E5  084D               	movf	___flmul@b+3,w
  1628  04E6  3980               	andlw	128
  1629  04E7  00D2               	movwf	??___flmul
  1630  04E8  0852               	movf	??___flmul,w
  1631  04E9  00D7               	movwf	___flmul@sign
  1632  04EA  084D               	movf	___flmul@b+3,w
  1633  04EB  00D2               	movwf	??___flmul
  1634  04EC  0752               	addwf	??___flmul,w
  1635  04ED  00D3               	movwf	??___flmul+1
  1636  04EE  0853               	movf	??___flmul+1,w
  1637  04EF  00DD               	movwf	___flmul@bexp
  1638  04F0  1BCC               	btfsc	___flmul@b+2,7
  1639  04F1  145D               	bsf	___flmul@bexp,0
  1640  04F2  085D               	movf	___flmul@bexp,w
  1641  04F3  1903               	btfsc	3,2
  1642  04F4  2D02               	goto	l1499
  1643  04F5  0A5D               	incf	___flmul@bexp,w
  1644  04F6  1D03               	btfss	3,2
  1645  04F7  2D00               	goto	l1497
  1646  04F8  3000               	movlw	0
  1647  04F9  00CD               	movwf	___flmul@b+3
  1648  04FA  3000               	movlw	0
  1649  04FB  00CC               	movwf	___flmul@b+2
  1650  04FC  3000               	movlw	0
  1651  04FD  00CB               	movwf	___flmul@b+1
  1652  04FE  3000               	movlw	0
  1653  04FF  00CA               	movwf	___flmul@b
  1654  0500                     l1497:	
  1655  0500  17CC               	bsf	___flmul@b+2,7
  1656  0501  2D0A               	goto	l1501
  1657  0502                     l1499:	
  1658  0502  3000               	movlw	0
  1659  0503  00CD               	movwf	___flmul@b+3
  1660  0504  3000               	movlw	0
  1661  0505  00CC               	movwf	___flmul@b+2
  1662  0506  3000               	movlw	0
  1663  0507  00CB               	movwf	___flmul@b+1
  1664  0508  3000               	movlw	0
  1665  0509  00CA               	movwf	___flmul@b
  1666  050A                     l1501:	
  1667  050A  0851               	movf	___flmul@a+3,w
  1668  050B  3980               	andlw	128
  1669  050C  00D2               	movwf	??___flmul
  1670  050D  0852               	movf	??___flmul,w
  1671  050E  06D7               	xorwf	___flmul@sign,f
  1672  050F  0851               	movf	___flmul@a+3,w
  1673  0510  00D2               	movwf	??___flmul
  1674  0511  0752               	addwf	??___flmul,w
  1675  0512  00D3               	movwf	??___flmul+1
  1676  0513  0853               	movf	??___flmul+1,w
  1677  0514  00DC               	movwf	___flmul@aexp
  1678  0515  1BD0               	btfsc	___flmul@a+2,7
  1679  0516  145C               	bsf	___flmul@aexp,0
  1680  0517  085C               	movf	___flmul@aexp,w
  1681  0518  1903               	btfsc	3,2
  1682  0519  2D27               	goto	l1517
  1683  051A  0A5C               	incf	___flmul@aexp,w
  1684  051B  1D03               	btfss	3,2
  1685  051C  2D25               	goto	l1515
  1686  051D  3000               	movlw	0
  1687  051E  00D1               	movwf	___flmul@a+3
  1688  051F  3000               	movlw	0
  1689  0520  00D0               	movwf	___flmul@a+2
  1690  0521  3000               	movlw	0
  1691  0522  00CF               	movwf	___flmul@a+1
  1692  0523  3000               	movlw	0
  1693  0524  00CE               	movwf	___flmul@a
  1694  0525                     l1515:	
  1695  0525  17D0               	bsf	___flmul@a+2,7
  1696  0526  2D2F               	goto	l1519
  1697  0527                     l1517:	
  1698  0527  3000               	movlw	0
  1699  0528  00D1               	movwf	___flmul@a+3
  1700  0529  3000               	movlw	0
  1701  052A  00D0               	movwf	___flmul@a+2
  1702  052B  3000               	movlw	0
  1703  052C  00CF               	movwf	___flmul@a+1
  1704  052D  3000               	movlw	0
  1705  052E  00CE               	movwf	___flmul@a
  1706  052F                     l1519:	
  1707  052F  085C               	movf	___flmul@aexp,w
  1708  0530  1D03               	btfss	3,2
  1709  0531  085D               	movf	___flmul@bexp,w
  1710  0532  1D03               	btfss	3,2
  1711  0533  2D3D               	goto	l1527
  1712  0534  3000               	movlw	0
  1713  0535  00CD               	movwf	?___flmul+3
  1714  0536  3000               	movlw	0
  1715  0537  00CC               	movwf	?___flmul+2
  1716  0538  3000               	movlw	0
  1717  0539  00CB               	movwf	?___flmul+1
  1718  053A  3000               	movlw	0
  1719  053B  00CA               	movwf	?___flmul
  1720  053C  0008               	return
  1721  053D                     l1527:	
  1722  053D  084A               	movf	___flmul@b,w
  1723  053E  00D2               	movwf	??___flmul
  1724  053F  0852               	movf	??___flmul,w
  1725  0540  00F0               	movwf	__Umul8_16@multiplicand
  1726  0541  0850               	movf	___flmul@a+2,w
  1727  0542  120A  158A  2722  120A  118A  	fcall	__Umul8_16
  1728  0547  0871               	movf	?__Umul8_16+1,w
  1729  0548  1283               	bcf	3,5	;RP0=0, select bank0
  1730  0549  1303               	bcf	3,6	;RP1=0, select bank0
  1731  054A  00E3               	movwf	___flmul@temp+1
  1732  054B  0870               	movf	?__Umul8_16,w
  1733  054C  00E2               	movwf	___flmul@temp
  1734  054D  0862               	movf	___flmul@temp,w
  1735  054E  00D2               	movwf	??___flmul
  1736  054F  01D3               	clrf	??___flmul+1
  1737  0550  01D4               	clrf	??___flmul+2
  1738  0551  01D5               	clrf	??___flmul+3
  1739  0552  0855               	movf	??___flmul+3,w
  1740  0553  00DB               	movwf	___flmul@grs+3
  1741  0554  0854               	movf	??___flmul+2,w
  1742  0555  00DA               	movwf	___flmul@grs+2
  1743  0556  0853               	movf	??___flmul+1,w
  1744  0557  00D9               	movwf	___flmul@grs+1
  1745  0558  0852               	movf	??___flmul,w
  1746  0559  00D8               	movwf	___flmul@grs
  1747  055A  0863               	movf	___flmul@temp+1,w
  1748  055B  00D2               	movwf	??___flmul
  1749  055C  01D3               	clrf	??___flmul+1
  1750  055D  01D4               	clrf	??___flmul+2
  1751  055E  01D5               	clrf	??___flmul+3
  1752  055F  0855               	movf	??___flmul+3,w
  1753  0560  00E1               	movwf	___flmul@prod+3
  1754  0561  0854               	movf	??___flmul+2,w
  1755  0562  00E0               	movwf	___flmul@prod+2
  1756  0563  0853               	movf	??___flmul+1,w
  1757  0564  00DF               	movwf	___flmul@prod+1
  1758  0565  0852               	movf	??___flmul,w
  1759  0566  00DE               	movwf	___flmul@prod
  1760  0567  084B               	movf	___flmul@b+1,w
  1761  0568  00D2               	movwf	??___flmul
  1762  0569  0852               	movf	??___flmul,w
  1763  056A  00F0               	movwf	__Umul8_16@multiplicand
  1764  056B  084F               	movf	___flmul@a+1,w
  1765  056C  120A  158A  2722  120A  118A  	fcall	__Umul8_16
  1766  0571  0871               	movf	?__Umul8_16+1,w
  1767  0572  1283               	bcf	3,5	;RP0=0, select bank0
  1768  0573  1303               	bcf	3,6	;RP1=0, select bank0
  1769  0574  00E3               	movwf	___flmul@temp+1
  1770  0575  0870               	movf	?__Umul8_16,w
  1771  0576  00E2               	movwf	___flmul@temp
  1772  0577  0862               	movf	___flmul@temp,w
  1773  0578  00D2               	movwf	??___flmul
  1774  0579  01D3               	clrf	??___flmul+1
  1775  057A  01D4               	clrf	??___flmul+2
  1776  057B  01D5               	clrf	??___flmul+3
  1777  057C  0852               	movf	??___flmul,w
  1778  057D  07D8               	addwf	___flmul@grs,f
  1779  057E  0853               	movf	??___flmul+1,w
  1780  057F  1103               	clrz
  1781  0580  1803               	skipnc
  1782  0581  3E01               	addlw	1
  1783  0582  1D03               	btfss	3,2
  1784  0583  07D9               	addwf	___flmul@grs+1,f
  1785  0584  0854               	movf	??___flmul+2,w
  1786  0585  1103               	clrz
  1787  0586  1803               	skipnc
  1788  0587  3E01               	addlw	1
  1789  0588  1D03               	btfss	3,2
  1790  0589  07DA               	addwf	___flmul@grs+2,f
  1791  058A  0855               	movf	??___flmul+3,w
  1792  058B  1103               	clrz
  1793  058C  1803               	skipnc
  1794  058D  3E01               	addlw	1
  1795  058E  1D03               	btfss	3,2
  1796  058F  07DB               	addwf	___flmul@grs+3,f
  1797  0590  0863               	movf	___flmul@temp+1,w
  1798  0591  00D2               	movwf	??___flmul
  1799  0592  01D3               	clrf	??___flmul+1
  1800  0593  01D4               	clrf	??___flmul+2
  1801  0594  01D5               	clrf	??___flmul+3
  1802  0595  0852               	movf	??___flmul,w
  1803  0596  07DE               	addwf	___flmul@prod,f
  1804  0597  0853               	movf	??___flmul+1,w
  1805  0598  1103               	clrz
  1806  0599  1803               	skipnc
  1807  059A  3E01               	addlw	1
  1808  059B  1D03               	btfss	3,2
  1809  059C  07DF               	addwf	___flmul@prod+1,f
  1810  059D  0854               	movf	??___flmul+2,w
  1811  059E  1103               	clrz
  1812  059F  1803               	skipnc
  1813  05A0  3E01               	addlw	1
  1814  05A1  1D03               	btfss	3,2
  1815  05A2  07E0               	addwf	___flmul@prod+2,f
  1816  05A3  0855               	movf	??___flmul+3,w
  1817  05A4  1103               	clrz
  1818  05A5  1803               	skipnc
  1819  05A6  3E01               	addlw	1
  1820  05A7  1D03               	btfss	3,2
  1821  05A8  07E1               	addwf	___flmul@prod+3,f
  1822  05A9  084C               	movf	___flmul@b+2,w
  1823  05AA  00D2               	movwf	??___flmul
  1824  05AB  0852               	movf	??___flmul,w
  1825  05AC  00F0               	movwf	__Umul8_16@multiplicand
  1826  05AD  084E               	movf	___flmul@a,w
  1827  05AE  120A  158A  2722  120A  118A  	fcall	__Umul8_16
  1828  05B3  0871               	movf	?__Umul8_16+1,w
  1829  05B4  1283               	bcf	3,5	;RP0=0, select bank0
  1830  05B5  1303               	bcf	3,6	;RP1=0, select bank0
  1831  05B6  00E3               	movwf	___flmul@temp+1
  1832  05B7  0870               	movf	?__Umul8_16,w
  1833  05B8  00E2               	movwf	___flmul@temp
  1834  05B9  0862               	movf	___flmul@temp,w
  1835  05BA  00D2               	movwf	??___flmul
  1836  05BB  01D3               	clrf	??___flmul+1
  1837  05BC  01D4               	clrf	??___flmul+2
  1838  05BD  01D5               	clrf	??___flmul+3
  1839  05BE  0852               	movf	??___flmul,w
  1840  05BF  07D8               	addwf	___flmul@grs,f
  1841  05C0  0853               	movf	??___flmul+1,w
  1842  05C1  1103               	clrz
  1843  05C2  1803               	skipnc
  1844  05C3  3E01               	addlw	1
  1845  05C4  1D03               	btfss	3,2
  1846  05C5  07D9               	addwf	___flmul@grs+1,f
  1847  05C6  0854               	movf	??___flmul+2,w
  1848  05C7  1103               	clrz
  1849  05C8  1803               	skipnc
  1850  05C9  3E01               	addlw	1
  1851  05CA  1D03               	btfss	3,2
  1852  05CB  07DA               	addwf	___flmul@grs+2,f
  1853  05CC  0855               	movf	??___flmul+3,w
  1854  05CD  1103               	clrz
  1855  05CE  1803               	skipnc
  1856  05CF  3E01               	addlw	1
  1857  05D0  1D03               	btfss	3,2
  1858  05D1  07DB               	addwf	___flmul@grs+3,f
  1859  05D2  0863               	movf	___flmul@temp+1,w
  1860  05D3  00D2               	movwf	??___flmul
  1861  05D4  01D3               	clrf	??___flmul+1
  1862  05D5  01D4               	clrf	??___flmul+2
  1863  05D6  01D5               	clrf	??___flmul+3
  1864  05D7  0852               	movf	??___flmul,w
  1865  05D8  07DE               	addwf	___flmul@prod,f
  1866  05D9  0853               	movf	??___flmul+1,w
  1867  05DA  1103               	clrz
  1868  05DB  1803               	skipnc
  1869  05DC  3E01               	addlw	1
  1870  05DD  1D03               	btfss	3,2
  1871  05DE  07DF               	addwf	___flmul@prod+1,f
  1872  05DF  0854               	movf	??___flmul+2,w
  1873  05E0  1103               	clrz
  1874  05E1  1803               	skipnc
  1875  05E2  3E01               	addlw	1
  1876  05E3  1D03               	btfss	3,2
  1877  05E4  07E0               	addwf	___flmul@prod+2,f
  1878  05E5  0855               	movf	??___flmul+3,w
  1879  05E6  1103               	clrz
  1880  05E7  1803               	skipnc
  1881  05E8  3E01               	addlw	1
  1882  05E9  1D03               	btfss	3,2
  1883  05EA  07E1               	addwf	___flmul@prod+3,f
  1884  05EB  3008               	movlw	8
  1885  05EC  00D2               	movwf	??___flmul
  1886  05ED                     u1835:	
  1887  05ED  1003               	clrc
  1888  05EE  0DD8               	rlf	___flmul@grs,f
  1889  05EF  0DD9               	rlf	___flmul@grs+1,f
  1890  05F0  0DDA               	rlf	___flmul@grs+2,f
  1891  05F1  0DDB               	rlf	___flmul@grs+3,f
  1892  05F2  0BD2               	decfsz	??___flmul,f
  1893  05F3  2DED               	goto	u1835
  1894  05F4  084B               	movf	___flmul@b+1,w
  1895  05F5  00D2               	movwf	??___flmul
  1896  05F6  0852               	movf	??___flmul,w
  1897  05F7  00F0               	movwf	__Umul8_16@multiplicand
  1898  05F8  084E               	movf	___flmul@a,w
  1899  05F9  120A  158A  2722  120A  118A  	fcall	__Umul8_16
  1900  05FE  0871               	movf	?__Umul8_16+1,w
  1901  05FF  1283               	bcf	3,5	;RP0=0, select bank0
  1902  0600  1303               	bcf	3,6	;RP1=0, select bank0
  1903  0601  00E3               	movwf	___flmul@temp+1
  1904  0602  0870               	movf	?__Umul8_16,w
  1905  0603  00E2               	movwf	___flmul@temp
  1906  0604  0862               	movf	___flmul@temp,w
  1907  0605  00D2               	movwf	??___flmul
  1908  0606  0863               	movf	___flmul@temp+1,w
  1909  0607  00D3               	movwf	??___flmul+1
  1910  0608  01D4               	clrf	??___flmul+2
  1911  0609  01D5               	clrf	??___flmul+3
  1912  060A  0852               	movf	??___flmul,w
  1913  060B  07D8               	addwf	___flmul@grs,f
  1914  060C  0853               	movf	??___flmul+1,w
  1915  060D  1103               	clrz
  1916  060E  1803               	skipnc
  1917  060F  3E01               	addlw	1
  1918  0610  1D03               	btfss	3,2
  1919  0611  07D9               	addwf	___flmul@grs+1,f
  1920  0612  0854               	movf	??___flmul+2,w
  1921  0613  1103               	clrz
  1922  0614  1803               	skipnc
  1923  0615  3E01               	addlw	1
  1924  0616  1D03               	btfss	3,2
  1925  0617  07DA               	addwf	___flmul@grs+2,f
  1926  0618  0855               	movf	??___flmul+3,w
  1927  0619  1103               	clrz
  1928  061A  1803               	skipnc
  1929  061B  3E01               	addlw	1
  1930  061C  1D03               	btfss	3,2
  1931  061D  07DB               	addwf	___flmul@grs+3,f
  1932  061E  084A               	movf	___flmul@b,w
  1933  061F  00D2               	movwf	??___flmul
  1934  0620  0852               	movf	??___flmul,w
  1935  0621  00F0               	movwf	__Umul8_16@multiplicand
  1936  0622  084F               	movf	___flmul@a+1,w
  1937  0623  120A  158A  2722  120A  118A  	fcall	__Umul8_16
  1938  0628  0871               	movf	?__Umul8_16+1,w
  1939  0629  1283               	bcf	3,5	;RP0=0, select bank0
  1940  062A  1303               	bcf	3,6	;RP1=0, select bank0
  1941  062B  00E3               	movwf	___flmul@temp+1
  1942  062C  0870               	movf	?__Umul8_16,w
  1943  062D  00E2               	movwf	___flmul@temp
  1944  062E  0862               	movf	___flmul@temp,w
  1945  062F  00D2               	movwf	??___flmul
  1946  0630  0863               	movf	___flmul@temp+1,w
  1947  0631  00D3               	movwf	??___flmul+1
  1948  0632  01D4               	clrf	??___flmul+2
  1949  0633  01D5               	clrf	??___flmul+3
  1950  0634  0852               	movf	??___flmul,w
  1951  0635  07D8               	addwf	___flmul@grs,f
  1952  0636  0853               	movf	??___flmul+1,w
  1953  0637  1103               	clrz
  1954  0638  1803               	skipnc
  1955  0639  3E01               	addlw	1
  1956  063A  1D03               	btfss	3,2
  1957  063B  07D9               	addwf	___flmul@grs+1,f
  1958  063C  0854               	movf	??___flmul+2,w
  1959  063D  1103               	clrz
  1960  063E  1803               	skipnc
  1961  063F  3E01               	addlw	1
  1962  0640  1D03               	btfss	3,2
  1963  0641  07DA               	addwf	___flmul@grs+2,f
  1964  0642  0855               	movf	??___flmul+3,w
  1965  0643  1103               	clrz
  1966  0644  1803               	skipnc
  1967  0645  3E01               	addlw	1
  1968  0646  1D03               	btfss	3,2
  1969  0647  07DB               	addwf	___flmul@grs+3,f
  1970  0648  3008               	movlw	8
  1971  0649  00D2               	movwf	??___flmul
  1972  064A                     u1865:	
  1973  064A  1003               	clrc
  1974  064B  0DD8               	rlf	___flmul@grs,f
  1975  064C  0DD9               	rlf	___flmul@grs+1,f
  1976  064D  0DDA               	rlf	___flmul@grs+2,f
  1977  064E  0DDB               	rlf	___flmul@grs+3,f
  1978  064F  0BD2               	decfsz	??___flmul,f
  1979  0650  2E4A               	goto	u1865
  1980  0651  084A               	movf	___flmul@b,w
  1981  0652  00D2               	movwf	??___flmul
  1982  0653  0852               	movf	??___flmul,w
  1983  0654  00F0               	movwf	__Umul8_16@multiplicand
  1984  0655  084E               	movf	___flmul@a,w
  1985  0656  120A  158A  2722  120A  118A  	fcall	__Umul8_16
  1986  065B  0871               	movf	?__Umul8_16+1,w
  1987  065C  1283               	bcf	3,5	;RP0=0, select bank0
  1988  065D  1303               	bcf	3,6	;RP1=0, select bank0
  1989  065E  00E3               	movwf	___flmul@temp+1
  1990  065F  0870               	movf	?__Umul8_16,w
  1991  0660  00E2               	movwf	___flmul@temp
  1992  0661  0862               	movf	___flmul@temp,w
  1993  0662  00D2               	movwf	??___flmul
  1994  0663  0863               	movf	___flmul@temp+1,w
  1995  0664  00D3               	movwf	??___flmul+1
  1996  0665  01D4               	clrf	??___flmul+2
  1997  0666  01D5               	clrf	??___flmul+3
  1998  0667  0852               	movf	??___flmul,w
  1999  0668  07D8               	addwf	___flmul@grs,f
  2000  0669  0853               	movf	??___flmul+1,w
  2001  066A  1103               	clrz
  2002  066B  1803               	skipnc
  2003  066C  3E01               	addlw	1
  2004  066D  1D03               	btfss	3,2
  2005  066E  07D9               	addwf	___flmul@grs+1,f
  2006  066F  0854               	movf	??___flmul+2,w
  2007  0670  1103               	clrz
  2008  0671  1803               	skipnc
  2009  0672  3E01               	addlw	1
  2010  0673  1D03               	btfss	3,2
  2011  0674  07DA               	addwf	___flmul@grs+2,f
  2012  0675  0855               	movf	??___flmul+3,w
  2013  0676  1103               	clrz
  2014  0677  1803               	skipnc
  2015  0678  3E01               	addlw	1
  2016  0679  1D03               	btfss	3,2
  2017  067A  07DB               	addwf	___flmul@grs+3,f
  2018  067B  084B               	movf	___flmul@b+1,w
  2019  067C  00D2               	movwf	??___flmul
  2020  067D  0852               	movf	??___flmul,w
  2021  067E  00F0               	movwf	__Umul8_16@multiplicand
  2022  067F  0850               	movf	___flmul@a+2,w
  2023  0680  120A  158A  2722  120A  118A  	fcall	__Umul8_16
  2024  0685  0871               	movf	?__Umul8_16+1,w
  2025  0686  1283               	bcf	3,5	;RP0=0, select bank0
  2026  0687  1303               	bcf	3,6	;RP1=0, select bank0
  2027  0688  00E3               	movwf	___flmul@temp+1
  2028  0689  0870               	movf	?__Umul8_16,w
  2029  068A  00E2               	movwf	___flmul@temp
  2030  068B  0862               	movf	___flmul@temp,w
  2031  068C  00D2               	movwf	??___flmul
  2032  068D  0863               	movf	___flmul@temp+1,w
  2033  068E  00D3               	movwf	??___flmul+1
  2034  068F  01D4               	clrf	??___flmul+2
  2035  0690  01D5               	clrf	??___flmul+3
  2036  0691  0852               	movf	??___flmul,w
  2037  0692  07DE               	addwf	___flmul@prod,f
  2038  0693  0853               	movf	??___flmul+1,w
  2039  0694  1103               	clrz
  2040  0695  1803               	skipnc
  2041  0696  3E01               	addlw	1
  2042  0697  1D03               	btfss	3,2
  2043  0698  07DF               	addwf	___flmul@prod+1,f
  2044  0699  0854               	movf	??___flmul+2,w
  2045  069A  1103               	clrz
  2046  069B  1803               	skipnc
  2047  069C  3E01               	addlw	1
  2048  069D  1D03               	btfss	3,2
  2049  069E  07E0               	addwf	___flmul@prod+2,f
  2050  069F  0855               	movf	??___flmul+3,w
  2051  06A0  1103               	clrz
  2052  06A1  1803               	skipnc
  2053  06A2  3E01               	addlw	1
  2054  06A3  1D03               	btfss	3,2
  2055  06A4  07E1               	addwf	___flmul@prod+3,f
  2056  06A5  084C               	movf	___flmul@b+2,w
  2057  06A6  00D2               	movwf	??___flmul
  2058  06A7  0852               	movf	??___flmul,w
  2059  06A8  00F0               	movwf	__Umul8_16@multiplicand
  2060  06A9  084F               	movf	___flmul@a+1,w
  2061  06AA  120A  158A  2722  120A  118A  	fcall	__Umul8_16
  2062  06AF  0871               	movf	?__Umul8_16+1,w
  2063  06B0  1283               	bcf	3,5	;RP0=0, select bank0
  2064  06B1  1303               	bcf	3,6	;RP1=0, select bank0
  2065  06B2  00E3               	movwf	___flmul@temp+1
  2066  06B3  0870               	movf	?__Umul8_16,w
  2067  06B4  00E2               	movwf	___flmul@temp
  2068  06B5  0862               	movf	___flmul@temp,w
  2069  06B6  00D2               	movwf	??___flmul
  2070  06B7  0863               	movf	___flmul@temp+1,w
  2071  06B8  00D3               	movwf	??___flmul+1
  2072  06B9  01D4               	clrf	??___flmul+2
  2073  06BA  01D5               	clrf	??___flmul+3
  2074  06BB  0852               	movf	??___flmul,w
  2075  06BC  07DE               	addwf	___flmul@prod,f
  2076  06BD  0853               	movf	??___flmul+1,w
  2077  06BE  1103               	clrz
  2078  06BF  1803               	skipnc
  2079  06C0  3E01               	addlw	1
  2080  06C1  1D03               	btfss	3,2
  2081  06C2  07DF               	addwf	___flmul@prod+1,f
  2082  06C3  0854               	movf	??___flmul+2,w
  2083  06C4  1103               	clrz
  2084  06C5  1803               	skipnc
  2085  06C6  3E01               	addlw	1
  2086  06C7  1D03               	btfss	3,2
  2087  06C8  07E0               	addwf	___flmul@prod+2,f
  2088  06C9  0855               	movf	??___flmul+3,w
  2089  06CA  1103               	clrz
  2090  06CB  1803               	skipnc
  2091  06CC  3E01               	addlw	1
  2092  06CD  1D03               	btfss	3,2
  2093  06CE  07E1               	addwf	___flmul@prod+3,f
  2094  06CF  084C               	movf	___flmul@b+2,w
  2095  06D0  00D2               	movwf	??___flmul
  2096  06D1  0852               	movf	??___flmul,w
  2097  06D2  00F0               	movwf	__Umul8_16@multiplicand
  2098  06D3  0850               	movf	___flmul@a+2,w
  2099  06D4  120A  158A  2722  120A  118A  	fcall	__Umul8_16
  2100  06D9  0871               	movf	?__Umul8_16+1,w
  2101  06DA  1283               	bcf	3,5	;RP0=0, select bank0
  2102  06DB  1303               	bcf	3,6	;RP1=0, select bank0
  2103  06DC  00E3               	movwf	___flmul@temp+1
  2104  06DD  0870               	movf	?__Umul8_16,w
  2105  06DE  00E2               	movwf	___flmul@temp
  2106  06DF  0862               	movf	___flmul@temp,w
  2107  06E0  00D2               	movwf	??___flmul
  2108  06E1  0863               	movf	___flmul@temp+1,w
  2109  06E2  00D3               	movwf	??___flmul+1
  2110  06E3  01D4               	clrf	??___flmul+2
  2111  06E4  01D5               	clrf	??___flmul+3
  2112  06E5  3008               	movlw	8
  2113  06E6                     u1905:	
  2114  06E6  1003               	clrc
  2115  06E7  0DD2               	rlf	??___flmul,f
  2116  06E8  0DD3               	rlf	??___flmul+1,f
  2117  06E9  0DD4               	rlf	??___flmul+2,f
  2118  06EA  0DD5               	rlf	??___flmul+3,f
  2119  06EB  3EFF               	addlw	-1
  2120  06EC  1D03               	skipz
  2121  06ED  2EE6               	goto	u1905
  2122  06EE  0852               	movf	??___flmul,w
  2123  06EF  07DE               	addwf	___flmul@prod,f
  2124  06F0  0853               	movf	??___flmul+1,w
  2125  06F1  1103               	clrz
  2126  06F2  1803               	skipnc
  2127  06F3  3E01               	addlw	1
  2128  06F4  1D03               	btfss	3,2
  2129  06F5  07DF               	addwf	___flmul@prod+1,f
  2130  06F6  0854               	movf	??___flmul+2,w
  2131  06F7  1103               	clrz
  2132  06F8  1803               	skipnc
  2133  06F9  3E01               	addlw	1
  2134  06FA  1D03               	btfss	3,2
  2135  06FB  07E0               	addwf	___flmul@prod+2,f
  2136  06FC  0855               	movf	??___flmul+3,w
  2137  06FD  1103               	clrz
  2138  06FE  1803               	skipnc
  2139  06FF  3E01               	addlw	1
  2140  0700  1D03               	btfss	3,2
  2141  0701  07E1               	addwf	___flmul@prod+3,f
  2142  0702  0858               	movf	___flmul@grs,w
  2143  0703  00D2               	movwf	??___flmul
  2144  0704  0859               	movf	___flmul@grs+1,w
  2145  0705  00D3               	movwf	??___flmul+1
  2146  0706  085A               	movf	___flmul@grs+2,w
  2147  0707  00D4               	movwf	??___flmul+2
  2148  0708  085B               	movf	___flmul@grs+3,w
  2149  0709  00D5               	movwf	??___flmul+3
  2150  070A  3018               	movlw	24
  2151  070B                     u1925:	
  2152  070B  1003               	clrc
  2153  070C  0CD5               	rrf	??___flmul+3,f
  2154  070D  0CD4               	rrf	??___flmul+2,f
  2155  070E  0CD3               	rrf	??___flmul+1,f
  2156  070F  0CD2               	rrf	??___flmul,f
  2157  0710  3EFF               	addlw	-1
  2158  0711  1D03               	skipz
  2159  0712  2F0B               	goto	u1925
  2160  0713  0852               	movf	??___flmul,w
  2161  0714  07DE               	addwf	___flmul@prod,f
  2162  0715  0853               	movf	??___flmul+1,w
  2163  0716  1103               	clrz
  2164  0717  1803               	skipnc
  2165  0718  3E01               	addlw	1
  2166  0719  1D03               	btfss	3,2
  2167  071A  07DF               	addwf	___flmul@prod+1,f
  2168  071B  0854               	movf	??___flmul+2,w
  2169  071C  1103               	clrz
  2170  071D  1803               	skipnc
  2171  071E  3E01               	addlw	1
  2172  071F  1D03               	btfss	3,2
  2173  0720  07E0               	addwf	___flmul@prod+2,f
  2174  0721  0855               	movf	??___flmul+3,w
  2175  0722  1103               	clrz
  2176  0723  1803               	skipnc
  2177  0724  3E01               	addlw	1
  2178  0725  1D03               	btfss	3,2
  2179  0726  07E1               	addwf	___flmul@prod+3,f
  2180  0727  3008               	movlw	8
  2181  0728  00D2               	movwf	??___flmul
  2182  0729                     u1945:	
  2183  0729  1003               	clrc
  2184  072A  0DD8               	rlf	___flmul@grs,f
  2185  072B  0DD9               	rlf	___flmul@grs+1,f
  2186  072C  0DDA               	rlf	___flmul@grs+2,f
  2187  072D  0DDB               	rlf	___flmul@grs+3,f
  2188  072E  0BD2               	decfsz	??___flmul,f
  2189  072F  2F29               	goto	u1945
  2190  0730  085D               	movf	___flmul@bexp,w
  2191  0731  075C               	addwf	___flmul@aexp,w
  2192  0732  00D2               	movwf	??___flmul
  2193  0733  01D3               	clrf	??___flmul+1
  2194  0734  0DD3               	rlf	??___flmul+1,f
  2195  0735  0852               	movf	??___flmul,w
  2196  0736  3E82               	addlw	130
  2197  0737  00E2               	movwf	___flmul@temp
  2198  0738  0853               	movf	??___flmul+1,w
  2199  0739  1803               	skipnc
  2200  073A  3E01               	addlw	1
  2201  073B  3EFF               	addlw	255
  2202  073C  00E3               	movwf	___flmul@temp+1
  2203  073D                     l1579:	
  2204  073D  1BE0               	btfsc	___flmul@prod+2,7
  2205  073E  2F5A               	goto	l1581
  2206  073F  3001               	movlw	1
  2207  0740  00D2               	movwf	??___flmul
  2208  0741                     u1955:	
  2209  0741  1003               	clrc
  2210  0742  0DDE               	rlf	___flmul@prod,f
  2211  0743  0DDF               	rlf	___flmul@prod+1,f
  2212  0744  0DE0               	rlf	___flmul@prod+2,f
  2213  0745  0DE1               	rlf	___flmul@prod+3,f
  2214  0746  0BD2               	decfsz	??___flmul,f
  2215  0747  2F41               	goto	u1955
  2216  0748  1BDB               	btfsc	___flmul@grs+3,7
  2217  0749  145E               	bsf	___flmul@prod,0
  2218  074A  3001               	movlw	1
  2219  074B  00D2               	movwf	??___flmul
  2220  074C                     u1975:	
  2221  074C  1003               	clrc
  2222  074D  0DD8               	rlf	___flmul@grs,f
  2223  074E  0DD9               	rlf	___flmul@grs+1,f
  2224  074F  0DDA               	rlf	___flmul@grs+2,f
  2225  0750  0DDB               	rlf	___flmul@grs+3,f
  2226  0751  0BD2               	decfsz	??___flmul,f
  2227  0752  2F4C               	goto	u1975
  2228  0753  30FF               	movlw	255
  2229  0754  07E2               	addwf	___flmul@temp,f
  2230  0755  1803               	skipnc
  2231  0756  0AE3               	incf	___flmul@temp+1,f
  2232  0757  30FF               	movlw	255
  2233  0758  07E3               	addwf	___flmul@temp+1,f
  2234  0759  2F3D               	goto	l1579
  2235  075A                     l1581:	
  2236  075A  01DC               	clrf	___flmul@aexp
  2237  075B  1FDB               	btfss	___flmul@grs+3,7
  2238  075C  2F73               	goto	l1591
  2239  075D  30FF               	movlw	255
  2240  075E  0558               	andwf	___flmul@grs,w
  2241  075F  00D2               	movwf	??___flmul
  2242  0760  30FF               	movlw	255
  2243  0761  0559               	andwf	___flmul@grs+1,w
  2244  0762  00D3               	movwf	??___flmul+1
  2245  0763  30FF               	movlw	255
  2246  0764  055A               	andwf	___flmul@grs+2,w
  2247  0765  00D4               	movwf	??___flmul+2
  2248  0766  307F               	movlw	127
  2249  0767  055B               	andwf	___flmul@grs+3,w
  2250  0768  00D5               	movwf	??___flmul+3
  2251  0769  0855               	movf	??___flmul+3,w
  2252  076A  0454               	iorwf	??___flmul+2,w
  2253  076B  0453               	iorwf	??___flmul+1,w
  2254  076C  0452               	iorwf	??___flmul,w
  2255  076D  1903               	skipnz
  2256  076E  185E               	btfsc	___flmul@prod,0
  2257  076F  2F71               	goto	l1587
  2258  0770  2F73               	goto	l1591
  2259  0771                     l1587:	
  2260  0771  01DC               	clrf	___flmul@aexp
  2261  0772  0ADC               	incf	___flmul@aexp,f
  2262  0773                     l1591:	
  2263  0773  085C               	movf	___flmul@aexp,w
  2264  0774  1903               	btfsc	3,2
  2265  0775  2FA5               	goto	l1601
  2266  0776  3001               	movlw	1
  2267  0777  07DE               	addwf	___flmul@prod,f
  2268  0778  3000               	movlw	0
  2269  0779  1803               	skipnc
  2270  077A  3001               	movlw	1
  2271  077B  07DF               	addwf	___flmul@prod+1,f
  2272  077C  3000               	movlw	0
  2273  077D  1803               	skipnc
  2274  077E  3001               	movlw	1
  2275  077F  07E0               	addwf	___flmul@prod+2,f
  2276  0780  3000               	movlw	0
  2277  0781  1803               	skipnc
  2278  0782  3001               	movlw	1
  2279  0783  07E1               	addwf	___flmul@prod+3,f
  2280  0784  1C61               	btfss	___flmul@prod+3,0
  2281  0785  2FA5               	goto	l1601
  2282  0786  085E               	movf	___flmul@prod,w
  2283  0787  00D2               	movwf	??___flmul
  2284  0788  085F               	movf	___flmul@prod+1,w
  2285  0789  00D3               	movwf	??___flmul+1
  2286  078A  0860               	movf	___flmul@prod+2,w
  2287  078B  00D4               	movwf	??___flmul+2
  2288  078C  0861               	movf	___flmul@prod+3,w
  2289  078D  00D5               	movwf	??___flmul+3
  2290  078E  3001               	movlw	1
  2291  078F  00D6               	movwf	??___flmul+4
  2292  0790                     u2045:	
  2293  0790  0D55               	rlf	??___flmul+3,w
  2294  0791  0CD5               	rrf	??___flmul+3,f
  2295  0792  0CD4               	rrf	??___flmul+2,f
  2296  0793  0CD3               	rrf	??___flmul+1,f
  2297  0794  0CD2               	rrf	??___flmul,f
  2298  0795  0BD6               	decfsz	??___flmul+4,f
  2299  0796  2F90               	goto	u2045
  2300  0797  0855               	movf	??___flmul+3,w
  2301  0798  00E1               	movwf	___flmul@prod+3
  2302  0799  0854               	movf	??___flmul+2,w
  2303  079A  00E0               	movwf	___flmul@prod+2
  2304  079B  0853               	movf	??___flmul+1,w
  2305  079C  00DF               	movwf	___flmul@prod+1
  2306  079D  0852               	movf	??___flmul,w
  2307  079E  00DE               	movwf	___flmul@prod
  2308  079F  3001               	movlw	1
  2309  07A0  07E2               	addwf	___flmul@temp,f
  2310  07A1  1803               	skipnc
  2311  07A2  0AE3               	incf	___flmul@temp+1,f
  2312  07A3  3000               	movlw	0
  2313  07A4  07E3               	addwf	___flmul@temp+1,f
  2314  07A5                     l1601:	
  2315  07A5  0863               	movf	___flmul@temp+1,w
  2316  07A6  3A80               	xorlw	128
  2317  07A7  00FF               	movwf	127
  2318  07A8  3080               	movlw	128
  2319  07A9  027F               	subwf	127,w
  2320  07AA  1D03               	skipz
  2321  07AB  2FAE               	goto	u2055
  2322  07AC  30FF               	movlw	255
  2323  07AD  0262               	subwf	___flmul@temp,w
  2324  07AE                     u2055:	
  2325  07AE  1C03               	skipc
  2326  07AF  2FBB               	goto	l1605
  2327  07B0  307F               	movlw	127
  2328  07B1  1283               	bcf	3,5	;RP0=0, select bank0
  2329  07B2  1303               	bcf	3,6	;RP1=0, select bank0
  2330  07B3  00E1               	movwf	___flmul@prod+3
  2331  07B4  3080               	movlw	128
  2332  07B5  00E0               	movwf	___flmul@prod+2
  2333  07B6  3000               	movlw	0
  2334  07B7  00DF               	movwf	___flmul@prod+1
  2335  07B8  3000               	movlw	0
  2336  07B9  00DE               	movwf	___flmul@prod
  2337  07BA  2FEB               	goto	l600
  2338  07BB                     l1605:	
  2339  07BB  1283               	bcf	3,5	;RP0=0, select bank0
  2340  07BC  1303               	bcf	3,6	;RP1=0, select bank0
  2341  07BD  0863               	movf	___flmul@temp+1,w
  2342  07BE  3A80               	xorlw	128
  2343  07BF  00FF               	movwf	127
  2344  07C0  3080               	movlw	128
  2345  07C1  027F               	subwf	127,w
  2346  07C2  1D03               	skipz
  2347  07C3  2FC6               	goto	u2065
  2348  07C4  3001               	movlw	1
  2349  07C5  0262               	subwf	___flmul@temp,w
  2350  07C6                     u2065:	
  2351  07C6  1803               	skipnc
  2352  07C7  2FD4               	goto	l1611
  2353  07C8  3000               	movlw	0
  2354  07C9  1283               	bcf	3,5	;RP0=0, select bank0
  2355  07CA  1303               	bcf	3,6	;RP1=0, select bank0
  2356  07CB  00E1               	movwf	___flmul@prod+3
  2357  07CC  3000               	movlw	0
  2358  07CD  00E0               	movwf	___flmul@prod+2
  2359  07CE  3000               	movlw	0
  2360  07CF  00DF               	movwf	___flmul@prod+1
  2361  07D0  3000               	movlw	0
  2362  07D1  00DE               	movwf	___flmul@prod
  2363  07D2  01D7               	clrf	___flmul@sign
  2364  07D3  2FEB               	goto	l600
  2365  07D4                     l1611:	
  2366  07D4  1283               	bcf	3,5	;RP0=0, select bank0
  2367  07D5  1303               	bcf	3,6	;RP1=0, select bank0
  2368  07D6  0862               	movf	___flmul@temp,w
  2369  07D7  00D2               	movwf	??___flmul
  2370  07D8  0852               	movf	??___flmul,w
  2371  07D9  00DD               	movwf	___flmul@bexp
  2372  07DA  30FF               	movlw	255
  2373  07DB  05DE               	andwf	___flmul@prod,f
  2374  07DC  30FF               	movlw	255
  2375  07DD  05DF               	andwf	___flmul@prod+1,f
  2376  07DE  307F               	movlw	127
  2377  07DF  05E0               	andwf	___flmul@prod+2,f
  2378  07E0  3000               	movlw	0
  2379  07E1  05E1               	andwf	___flmul@prod+3,f
  2380  07E2  185D               	btfsc	___flmul@bexp,0
  2381  07E3  17E0               	bsf	___flmul@prod+2,7
  2382  07E4  085D               	movf	___flmul@bexp,w
  2383  07E5  00D2               	movwf	??___flmul
  2384  07E6  1003               	clrc
  2385  07E7  0C52               	rrf	??___flmul,w
  2386  07E8  00D3               	movwf	??___flmul+1
  2387  07E9  0853               	movf	??___flmul+1,w
  2388  07EA  00E1               	movwf	___flmul@prod+3
  2389  07EB                     l600:	
  2390  07EB  0857               	movf	___flmul@sign,w
  2391  07EC  00D2               	movwf	??___flmul
  2392  07ED  0852               	movf	??___flmul,w
  2393  07EE  04E1               	iorwf	___flmul@prod+3,f
  2394  07EF  0861               	movf	___flmul@prod+3,w
  2395  07F0  00CD               	movwf	?___flmul+3
  2396  07F1  0860               	movf	___flmul@prod+2,w
  2397  07F2  00CC               	movwf	?___flmul+2
  2398  07F3  085F               	movf	___flmul@prod+1,w
  2399  07F4  00CB               	movwf	?___flmul+1
  2400  07F5  085E               	movf	___flmul@prod,w
  2401  07F6  00CA               	movwf	?___flmul
  2402  07F7  0008               	return
  2403  07F8                     __end_of___flmul:	
  2404                           
  2405                           	psect	text6
  2406  0F22                     __ptext6:	
  2407 ;; *************** function __Umul8_16 *****************
  2408 ;; Defined at:
  2409 ;;		line 4 in file "C:\Program Files (x86)\Microchip\xc8\v2.05\pic\sources\c90\common\Umul8_16.c"
  2410 ;; Parameters:    Size  Location     Type
  2411 ;;  multiplier      1    wreg     unsigned char 
  2412 ;;  multiplicand    1    0[COMMON] unsigned char 
  2413 ;; Auto vars:     Size  Location     Type
  2414 ;;  multiplier      1    8[COMMON] unsigned char 
  2415 ;;  word_mpld       2    6[COMMON] unsigned int 
  2416 ;;  product         2    4[COMMON] unsigned int 
  2417 ;; Return value:  Size  Location     Type
  2418 ;;                  2    0[COMMON] unsigned int 
  2419 ;; Registers used:
  2420 ;;		wreg, status,2, status,0
  2421 ;; Tracked objects:
  2422 ;;		On entry : 0/0
  2423 ;;		On exit  : 0/0
  2424 ;;		Unchanged: 0/0
  2425 ;; Data sizes:     COMMON   BANK0   BANK1   BANK3   BANK2
  2426 ;;      Params:         2       0       0       0       0
  2427 ;;      Locals:         5       0       0       0       0
  2428 ;;      Temps:          2       0       0       0       0
  2429 ;;      Totals:         9       0       0       0       0
  2430 ;;Total ram usage:        9 bytes
  2431 ;; Hardware stack levels used:    1
  2432 ;; This function calls:
  2433 ;;		Nothing
  2434 ;; This function is called by:
  2435 ;;		___flmul
  2436 ;; This function uses a non-reentrant model
  2437 ;;
  2438                           
  2439                           
  2440                           ;psect for function __Umul8_16
  2441  0F22                     __Umul8_16:	
  2442                           
  2443                           ;incstack = 0
  2444                           ; Regs used in __Umul8_16: [wreg+status,2+status,0]
  2445                           ;__Umul8_16@multiplier stored from wreg
  2446  0F22  00F8               	movwf	__Umul8_16@multiplier
  2447  0F23  01F4               	clrf	__Umul8_16@product
  2448  0F24  01F5               	clrf	__Umul8_16@product+1
  2449  0F25  0870               	movf	__Umul8_16@multiplicand,w
  2450  0F26  00F2               	movwf	??__Umul8_16
  2451  0F27  01F3               	clrf	??__Umul8_16+1
  2452  0F28  0872               	movf	??__Umul8_16,w
  2453  0F29  00F6               	movwf	__Umul8_16@word_mpld
  2454  0F2A  0873               	movf	??__Umul8_16+1,w
  2455  0F2B  00F7               	movwf	__Umul8_16@word_mpld+1
  2456  0F2C                     l1281:	
  2457  0F2C  1C78               	btfss	__Umul8_16@multiplier,0
  2458  0F2D  2F34               	goto	l645
  2459  0F2E  0876               	movf	__Umul8_16@word_mpld,w
  2460  0F2F  07F4               	addwf	__Umul8_16@product,f
  2461  0F30  1803               	skipnc
  2462  0F31  0AF5               	incf	__Umul8_16@product+1,f
  2463  0F32  0877               	movf	__Umul8_16@word_mpld+1,w
  2464  0F33  07F5               	addwf	__Umul8_16@product+1,f
  2465  0F34                     l645:	
  2466  0F34  3001               	movlw	1
  2467  0F35                     u1285:	
  2468  0F35  1003               	clrc
  2469  0F36  0DF6               	rlf	__Umul8_16@word_mpld,f
  2470  0F37  0DF7               	rlf	__Umul8_16@word_mpld+1,f
  2471  0F38  3EFF               	addlw	-1
  2472  0F39  1D03               	skipz
  2473  0F3A  2F35               	goto	u1285
  2474  0F3B  1003               	clrc
  2475  0F3C  0CF8               	rrf	__Umul8_16@multiplier,f
  2476  0F3D  0878               	movf	__Umul8_16@multiplier,w
  2477  0F3E  1D03               	btfss	3,2
  2478  0F3F  2F2C               	goto	l1281
  2479  0F40  0875               	movf	__Umul8_16@product+1,w
  2480  0F41  00F1               	movwf	?__Umul8_16+1
  2481  0F42  0874               	movf	__Umul8_16@product,w
  2482  0F43  00F0               	movwf	?__Umul8_16
  2483  0F44  0008               	return
  2484  0F45                     __end_of__Umul8_16:	
  2485                           
  2486                           	psect	text7
  2487  0340                     __ptext7:	
  2488 ;; *************** function ___fldiv *****************
  2489 ;; Defined at:
  2490 ;;		line 8 in file "C:\Program Files (x86)\Microchip\xc8\v2.05\pic\sources\c90\common\sprcdiv.c"
  2491 ;; Parameters:    Size  Location     Type
  2492 ;;  a               4   16[BANK0 ] unsigned int 
  2493 ;;  b               4   20[BANK0 ] unsigned int 
  2494 ;; Auto vars:     Size  Location     Type
  2495 ;;  grs             4   36[BANK0 ] unsigned long 
  2496 ;;  rem             4   29[BANK0 ] unsigned long 
  2497 ;;  new_exp         2   34[BANK0 ] int 
  2498 ;;  aexp            1   41[BANK0 ] unsigned char 
  2499 ;;  bexp            1   40[BANK0 ] unsigned char 
  2500 ;;  sign            1   33[BANK0 ] unsigned char 
  2501 ;; Return value:  Size  Location     Type
  2502 ;;                  4   16[BANK0 ] unsigned char 
  2503 ;; Registers used:
  2504 ;;		wreg, status,2, status,0, btemp+1
  2505 ;; Tracked objects:
  2506 ;;		On entry : 0/0
  2507 ;;		On exit  : 0/0
  2508 ;;		Unchanged: 0/0
  2509 ;; Data sizes:     COMMON   BANK0   BANK1   BANK3   BANK2
  2510 ;;      Params:         0       8       0       0       0
  2511 ;;      Locals:         0      13       0       0       0
  2512 ;;      Temps:          0       5       0       0       0
  2513 ;;      Totals:         0      26       0       0       0
  2514 ;;Total ram usage:       26 bytes
  2515 ;; Hardware stack levels used:    1
  2516 ;; This function calls:
  2517 ;;		Nothing
  2518 ;; This function is called by:
  2519 ;;		_pwmSetDutyCycle1
  2520 ;;		_pwmSetDutyCycle2
  2521 ;; This function uses a non-reentrant model
  2522 ;;
  2523                           
  2524                           
  2525                           ;psect for function ___fldiv
  2526  0340                     ___fldiv:	
  2527                           
  2528                           ;incstack = 0
  2529                           ; Regs used in ___fldiv: [wreg+status,2+status,0+btemp+1]
  2530  0340  1283               	bcf	3,5	;RP0=0, select bank0
  2531  0341  1303               	bcf	3,6	;RP1=0, select bank0
  2532  0342  0837               	movf	___fldiv@b+3,w
  2533  0343  3980               	andlw	128
  2534  0344  00B8               	movwf	??___fldiv
  2535  0345  0838               	movf	??___fldiv,w
  2536  0346  00C1               	movwf	___fldiv@sign
  2537  0347  0837               	movf	___fldiv@b+3,w
  2538  0348  00B8               	movwf	??___fldiv
  2539  0349  0738               	addwf	??___fldiv,w
  2540  034A  00B9               	movwf	??___fldiv+1
  2541  034B  0839               	movf	??___fldiv+1,w
  2542  034C  00C8               	movwf	___fldiv@bexp
  2543  034D  1BB6               	btfsc	___fldiv@b+2,7
  2544  034E  1448               	bsf	___fldiv@bexp,0
  2545  034F  0848               	movf	___fldiv@bexp,w
  2546  0350  1903               	btfsc	3,2
  2547  0351  2B60               	goto	l1359
  2548  0352  0A48               	incf	___fldiv@bexp,w
  2549  0353  1D03               	btfss	3,2
  2550  0354  2B5D               	goto	l1355
  2551  0355  3000               	movlw	0
  2552  0356  00B7               	movwf	___fldiv@b+3
  2553  0357  3000               	movlw	0
  2554  0358  00B6               	movwf	___fldiv@b+2
  2555  0359  3000               	movlw	0
  2556  035A  00B5               	movwf	___fldiv@b+1
  2557  035B  3000               	movlw	0
  2558  035C  00B4               	movwf	___fldiv@b
  2559  035D                     l1355:	
  2560  035D  17B6               	bsf	___fldiv@b+2,7
  2561  035E  01B7               	clrf	___fldiv@b+3
  2562  035F  2B68               	goto	l1361
  2563  0360                     l1359:	
  2564  0360  3000               	movlw	0
  2565  0361  00B7               	movwf	___fldiv@b+3
  2566  0362  3000               	movlw	0
  2567  0363  00B6               	movwf	___fldiv@b+2
  2568  0364  3000               	movlw	0
  2569  0365  00B5               	movwf	___fldiv@b+1
  2570  0366  3000               	movlw	0
  2571  0367  00B4               	movwf	___fldiv@b
  2572  0368                     l1361:	
  2573  0368  0833               	movf	___fldiv@a+3,w
  2574  0369  3980               	andlw	128
  2575  036A  00B8               	movwf	??___fldiv
  2576  036B  0838               	movf	??___fldiv,w
  2577  036C  06C1               	xorwf	___fldiv@sign,f
  2578  036D  0833               	movf	___fldiv@a+3,w
  2579  036E  00B8               	movwf	??___fldiv
  2580  036F  0738               	addwf	??___fldiv,w
  2581  0370  00B9               	movwf	??___fldiv+1
  2582  0371  0839               	movf	??___fldiv+1,w
  2583  0372  00C9               	movwf	___fldiv@aexp
  2584  0373  1BB2               	btfsc	___fldiv@a+2,7
  2585  0374  1449               	bsf	___fldiv@aexp,0
  2586  0375  0849               	movf	___fldiv@aexp,w
  2587  0376  1903               	btfsc	3,2
  2588  0377  2B86               	goto	l1379
  2589  0378  0A49               	incf	___fldiv@aexp,w
  2590  0379  1D03               	btfss	3,2
  2591  037A  2B83               	goto	l1375
  2592  037B  3000               	movlw	0
  2593  037C  00B3               	movwf	___fldiv@a+3
  2594  037D  3000               	movlw	0
  2595  037E  00B2               	movwf	___fldiv@a+2
  2596  037F  3000               	movlw	0
  2597  0380  00B1               	movwf	___fldiv@a+1
  2598  0381  3000               	movlw	0
  2599  0382  00B0               	movwf	___fldiv@a
  2600  0383                     l1375:	
  2601  0383  17B2               	bsf	___fldiv@a+2,7
  2602  0384  01B3               	clrf	___fldiv@a+3
  2603  0385  2B8E               	goto	l548
  2604  0386                     l1379:	
  2605  0386  3000               	movlw	0
  2606  0387  00B3               	movwf	___fldiv@a+3
  2607  0388  3000               	movlw	0
  2608  0389  00B2               	movwf	___fldiv@a+2
  2609  038A  3000               	movlw	0
  2610  038B  00B1               	movwf	___fldiv@a+1
  2611  038C  3000               	movlw	0
  2612  038D  00B0               	movwf	___fldiv@a
  2613  038E                     l548:	
  2614  038E  0833               	movf	___fldiv@a+3,w
  2615  038F  0432               	iorwf	___fldiv@a+2,w
  2616  0390  0431               	iorwf	___fldiv@a+1,w
  2617  0391  0430               	iorwf	___fldiv@a,w
  2618  0392  1D03               	skipz
  2619  0393  2BAD               	goto	l1389
  2620  0394  3000               	movlw	0
  2621  0395  00B7               	movwf	___fldiv@b+3
  2622  0396  3000               	movlw	0
  2623  0397  00B6               	movwf	___fldiv@b+2
  2624  0398  3000               	movlw	0
  2625  0399  00B5               	movwf	___fldiv@b+1
  2626  039A  3000               	movlw	0
  2627  039B  00B4               	movwf	___fldiv@b
  2628  039C  3080               	movlw	128
  2629  039D  04B6               	iorwf	___fldiv@b+2,f
  2630  039E  307F               	movlw	127
  2631  039F  04B7               	iorwf	___fldiv@b+3,f
  2632  03A0                     L1:	
  2633  03A0  0841               	movf	___fldiv@sign,w
  2634  03A1  00B8               	movwf	??___fldiv
  2635  03A2  0838               	movf	??___fldiv,w
  2636  03A3  04B7               	iorwf	___fldiv@b+3,f
  2637  03A4  0837               	movf	___fldiv@b+3,w
  2638  03A5  00B3               	movwf	?___fldiv+3
  2639  03A6  0836               	movf	___fldiv@b+2,w
  2640  03A7  00B2               	movwf	?___fldiv+2
  2641  03A8  0835               	movf	___fldiv@b+1,w
  2642  03A9  00B1               	movwf	?___fldiv+1
  2643  03AA  0834               	movf	___fldiv@b,w
  2644  03AB  00B0               	movwf	?___fldiv
  2645  03AC  0008               	return
  2646  03AD                     l1389:	
  2647  03AD  0848               	movf	___fldiv@bexp,w
  2648  03AE  1D03               	btfss	3,2
  2649  03AF  2BB9               	goto	l1395
  2650  03B0  3000               	movlw	0
  2651  03B1  00B3               	movwf	?___fldiv+3
  2652  03B2  3000               	movlw	0
  2653  03B3  00B2               	movwf	?___fldiv+2
  2654  03B4  3000               	movlw	0
  2655  03B5  00B1               	movwf	?___fldiv+1
  2656  03B6  3000               	movlw	0
  2657  03B7  00B0               	movwf	?___fldiv
  2658  03B8  0008               	return
  2659  03B9                     l1395:	
  2660  03B9  0848               	movf	___fldiv@bexp,w
  2661  03BA  00B8               	movwf	??___fldiv
  2662  03BB  01B9               	clrf	??___fldiv+1
  2663  03BC  0839               	movf	??___fldiv+1,w
  2664  03BD  00BB               	movwf	??___fldiv+3
  2665  03BE  0849               	movf	___fldiv@aexp,w
  2666  03BF  0238               	subwf	??___fldiv,w
  2667  03C0  00BA               	movwf	??___fldiv+2
  2668  03C1  1C03               	skipc
  2669  03C2  03BB               	decf	??___fldiv+3,f
  2670  03C3  083A               	movf	??___fldiv+2,w
  2671  03C4  3E7F               	addlw	127
  2672  03C5  00C2               	movwf	___fldiv@new_exp
  2673  03C6  083B               	movf	??___fldiv+3,w
  2674  03C7  1803               	skipnc
  2675  03C8  3E01               	addlw	1
  2676  03C9  3E00               	addlw	0
  2677  03CA  00C3               	movwf	___fldiv@new_exp+1
  2678  03CB  0837               	movf	___fldiv@b+3,w
  2679  03CC  00C0               	movwf	___fldiv@rem+3
  2680  03CD  0836               	movf	___fldiv@b+2,w
  2681  03CE  00BF               	movwf	___fldiv@rem+2
  2682  03CF  0835               	movf	___fldiv@b+1,w
  2683  03D0  00BE               	movwf	___fldiv@rem+1
  2684  03D1  0834               	movf	___fldiv@b,w
  2685  03D2  00BD               	movwf	___fldiv@rem
  2686  03D3  3000               	movlw	0
  2687  03D4  00B7               	movwf	___fldiv@b+3
  2688  03D5  3000               	movlw	0
  2689  03D6  00B6               	movwf	___fldiv@b+2
  2690  03D7  3000               	movlw	0
  2691  03D8  00B5               	movwf	___fldiv@b+1
  2692  03D9  3000               	movlw	0
  2693  03DA  00B4               	movwf	___fldiv@b
  2694  03DB  3000               	movlw	0
  2695  03DC  00C7               	movwf	___fldiv@grs+3
  2696  03DD  3000               	movlw	0
  2697  03DE  00C6               	movwf	___fldiv@grs+2
  2698  03DF  3000               	movlw	0
  2699  03E0  00C5               	movwf	___fldiv@grs+1
  2700  03E1  3000               	movlw	0
  2701  03E2  00C4               	movwf	___fldiv@grs
  2702  03E3  01C9               	clrf	___fldiv@aexp
  2703  03E4                     l1423:	
  2704  03E4  301A               	movlw	26
  2705  03E5  0249               	subwf	___fldiv@aexp,w
  2706  03E6  1803               	btfsc	3,0
  2707  03E7  2C2C               	goto	l1425
  2708  03E8  0849               	movf	___fldiv@aexp,w
  2709  03E9  1903               	btfsc	3,2
  2710  03EA  2C08               	goto	l1415
  2711  03EB  3001               	movlw	1
  2712  03EC  00B8               	movwf	??___fldiv
  2713  03ED                     u1515:	
  2714  03ED  1003               	clrc
  2715  03EE  0DBD               	rlf	___fldiv@rem,f
  2716  03EF  0DBE               	rlf	___fldiv@rem+1,f
  2717  03F0  0DBF               	rlf	___fldiv@rem+2,f
  2718  03F1  0DC0               	rlf	___fldiv@rem+3,f
  2719  03F2  0BB8               	decfsz	??___fldiv,f
  2720  03F3  2BED               	goto	u1515
  2721  03F4  3001               	movlw	1
  2722  03F5  00B8               	movwf	??___fldiv
  2723  03F6                     u1525:	
  2724  03F6  1003               	clrc
  2725  03F7  0DB4               	rlf	___fldiv@b,f
  2726  03F8  0DB5               	rlf	___fldiv@b+1,f
  2727  03F9  0DB6               	rlf	___fldiv@b+2,f
  2728  03FA  0DB7               	rlf	___fldiv@b+3,f
  2729  03FB  0BB8               	decfsz	??___fldiv,f
  2730  03FC  2BF6               	goto	u1525
  2731  03FD  1BC7               	btfsc	___fldiv@grs+3,7
  2732  03FE  1434               	bsf	___fldiv@b,0
  2733  03FF  3001               	movlw	1
  2734  0400  00B8               	movwf	??___fldiv
  2735  0401                     u1545:	
  2736  0401  1003               	clrc
  2737  0402  0DC4               	rlf	___fldiv@grs,f
  2738  0403  0DC5               	rlf	___fldiv@grs+1,f
  2739  0404  0DC6               	rlf	___fldiv@grs+2,f
  2740  0405  0DC7               	rlf	___fldiv@grs+3,f
  2741  0406  0BB8               	decfsz	??___fldiv,f
  2742  0407  2C01               	goto	u1545
  2743  0408                     l1415:	
  2744  0408  0833               	movf	___fldiv@a+3,w
  2745  0409  0240               	subwf	___fldiv@rem+3,w
  2746  040A  1D03               	skipz
  2747  040B  2C16               	goto	u1555
  2748  040C  0832               	movf	___fldiv@a+2,w
  2749  040D  023F               	subwf	___fldiv@rem+2,w
  2750  040E  1D03               	skipz
  2751  040F  2C16               	goto	u1555
  2752  0410  0831               	movf	___fldiv@a+1,w
  2753  0411  023E               	subwf	___fldiv@rem+1,w
  2754  0412  1D03               	skipz
  2755  0413  2C16               	goto	u1555
  2756  0414  0830               	movf	___fldiv@a,w
  2757  0415  023D               	subwf	___fldiv@rem,w
  2758  0416                     u1555:	
  2759  0416  1C03               	skipc
  2760  0417  2C27               	goto	l1421
  2761  0418  1747               	bsf	___fldiv@grs+3,6
  2762  0419  0830               	movf	___fldiv@a,w
  2763  041A  02BD               	subwf	___fldiv@rem,f
  2764  041B  0831               	movf	___fldiv@a+1,w
  2765  041C  1C03               	skipc
  2766  041D  0F31               	incfsz	___fldiv@a+1,w
  2767  041E  02BE               	subwf	___fldiv@rem+1,f
  2768  041F  0832               	movf	___fldiv@a+2,w
  2769  0420  1C03               	skipc
  2770  0421  0F32               	incfsz	___fldiv@a+2,w
  2771  0422  02BF               	subwf	___fldiv@rem+2,f
  2772  0423  0833               	movf	___fldiv@a+3,w
  2773  0424  1C03               	skipc
  2774  0425  0F33               	incfsz	___fldiv@a+3,w
  2775  0426  02C0               	subwf	___fldiv@rem+3,f
  2776  0427                     l1421:	
  2777  0427  3001               	movlw	1
  2778  0428  00B8               	movwf	??___fldiv
  2779  0429  0838               	movf	??___fldiv,w
  2780  042A  07C9               	addwf	___fldiv@aexp,f
  2781  042B  2BE4               	goto	l1423
  2782  042C                     l1425:	
  2783  042C  0840               	movf	___fldiv@rem+3,w
  2784  042D  043F               	iorwf	___fldiv@rem+2,w
  2785  042E  043E               	iorwf	___fldiv@rem+1,w
  2786  042F  043D               	iorwf	___fldiv@rem,w
  2787  0430  1D03               	btfss	3,2
  2788  0431  1444               	bsf	___fldiv@grs,0
  2789  0432                     l1439:	
  2790  0432  1BB6               	btfsc	___fldiv@b+2,7
  2791  0433  2C4F               	goto	l1441
  2792  0434  3001               	movlw	1
  2793  0435  00B8               	movwf	??___fldiv
  2794  0436                     u1585:	
  2795  0436  1003               	clrc
  2796  0437  0DB4               	rlf	___fldiv@b,f
  2797  0438  0DB5               	rlf	___fldiv@b+1,f
  2798  0439  0DB6               	rlf	___fldiv@b+2,f
  2799  043A  0DB7               	rlf	___fldiv@b+3,f
  2800  043B  0BB8               	decfsz	??___fldiv,f
  2801  043C  2C36               	goto	u1585
  2802  043D  1BC7               	btfsc	___fldiv@grs+3,7
  2803  043E  1434               	bsf	___fldiv@b,0
  2804  043F  3001               	movlw	1
  2805  0440  00B8               	movwf	??___fldiv
  2806  0441                     u1605:	
  2807  0441  1003               	clrc
  2808  0442  0DC4               	rlf	___fldiv@grs,f
  2809  0443  0DC5               	rlf	___fldiv@grs+1,f
  2810  0444  0DC6               	rlf	___fldiv@grs+2,f
  2811  0445  0DC7               	rlf	___fldiv@grs+3,f
  2812  0446  0BB8               	decfsz	??___fldiv,f
  2813  0447  2C41               	goto	u1605
  2814  0448  30FF               	movlw	255
  2815  0449  07C2               	addwf	___fldiv@new_exp,f
  2816  044A  1803               	skipnc
  2817  044B  0AC3               	incf	___fldiv@new_exp+1,f
  2818  044C  30FF               	movlw	255
  2819  044D  07C3               	addwf	___fldiv@new_exp+1,f
  2820  044E  2C32               	goto	l1439
  2821  044F                     l1441:	
  2822  044F  01C9               	clrf	___fldiv@aexp
  2823  0450  1FC7               	btfss	___fldiv@grs+3,7
  2824  0451  2C68               	goto	l1451
  2825  0452  30FF               	movlw	255
  2826  0453  0544               	andwf	___fldiv@grs,w
  2827  0454  00B8               	movwf	??___fldiv
  2828  0455  30FF               	movlw	255
  2829  0456  0545               	andwf	___fldiv@grs+1,w
  2830  0457  00B9               	movwf	??___fldiv+1
  2831  0458  30FF               	movlw	255
  2832  0459  0546               	andwf	___fldiv@grs+2,w
  2833  045A  00BA               	movwf	??___fldiv+2
  2834  045B  307F               	movlw	127
  2835  045C  0547               	andwf	___fldiv@grs+3,w
  2836  045D  00BB               	movwf	??___fldiv+3
  2837  045E  083B               	movf	??___fldiv+3,w
  2838  045F  043A               	iorwf	??___fldiv+2,w
  2839  0460  0439               	iorwf	??___fldiv+1,w
  2840  0461  0438               	iorwf	??___fldiv,w
  2841  0462  1903               	skipnz
  2842  0463  1834               	btfsc	___fldiv@b,0
  2843  0464  2C66               	goto	l1447
  2844  0465  2C68               	goto	l1451
  2845  0466                     l1447:	
  2846  0466  01C9               	clrf	___fldiv@aexp
  2847  0467  0AC9               	incf	___fldiv@aexp,f
  2848  0468                     l1451:	
  2849  0468  0849               	movf	___fldiv@aexp,w
  2850  0469  1903               	btfsc	3,2
  2851  046A  2C9A               	goto	l1461
  2852  046B  3001               	movlw	1
  2853  046C  07B4               	addwf	___fldiv@b,f
  2854  046D  3000               	movlw	0
  2855  046E  1803               	skipnc
  2856  046F  3001               	movlw	1
  2857  0470  07B5               	addwf	___fldiv@b+1,f
  2858  0471  3000               	movlw	0
  2859  0472  1803               	skipnc
  2860  0473  3001               	movlw	1
  2861  0474  07B6               	addwf	___fldiv@b+2,f
  2862  0475  3000               	movlw	0
  2863  0476  1803               	skipnc
  2864  0477  3001               	movlw	1
  2865  0478  07B7               	addwf	___fldiv@b+3,f
  2866  0479  1C37               	btfss	___fldiv@b+3,0
  2867  047A  2C9A               	goto	l1461
  2868  047B  0834               	movf	___fldiv@b,w
  2869  047C  00B8               	movwf	??___fldiv
  2870  047D  0835               	movf	___fldiv@b+1,w
  2871  047E  00B9               	movwf	??___fldiv+1
  2872  047F  0836               	movf	___fldiv@b+2,w
  2873  0480  00BA               	movwf	??___fldiv+2
  2874  0481  0837               	movf	___fldiv@b+3,w
  2875  0482  00BB               	movwf	??___fldiv+3
  2876  0483  3001               	movlw	1
  2877  0484  00BC               	movwf	??___fldiv+4
  2878  0485                     u1675:	
  2879  0485  0D3B               	rlf	??___fldiv+3,w
  2880  0486  0CBB               	rrf	??___fldiv+3,f
  2881  0487  0CBA               	rrf	??___fldiv+2,f
  2882  0488  0CB9               	rrf	??___fldiv+1,f
  2883  0489  0CB8               	rrf	??___fldiv,f
  2884  048A  0BBC               	decfsz	??___fldiv+4,f
  2885  048B  2C85               	goto	u1675
  2886  048C  083B               	movf	??___fldiv+3,w
  2887  048D  00B7               	movwf	___fldiv@b+3
  2888  048E  083A               	movf	??___fldiv+2,w
  2889  048F  00B6               	movwf	___fldiv@b+2
  2890  0490  0839               	movf	??___fldiv+1,w
  2891  0491  00B5               	movwf	___fldiv@b+1
  2892  0492  0838               	movf	??___fldiv,w
  2893  0493  00B4               	movwf	___fldiv@b
  2894  0494  3001               	movlw	1
  2895  0495  07C2               	addwf	___fldiv@new_exp,f
  2896  0496  1803               	skipnc
  2897  0497  0AC3               	incf	___fldiv@new_exp+1,f
  2898  0498  3000               	movlw	0
  2899  0499  07C3               	addwf	___fldiv@new_exp+1,f
  2900  049A                     l1461:	
  2901  049A  0843               	movf	___fldiv@new_exp+1,w
  2902  049B  3A80               	xorlw	128
  2903  049C  00FF               	movwf	127
  2904  049D  3080               	movlw	128
  2905  049E  027F               	subwf	127,w
  2906  049F  1D03               	skipz
  2907  04A0  2CA3               	goto	u1685
  2908  04A1  30FF               	movlw	255
  2909  04A2  0242               	subwf	___fldiv@new_exp,w
  2910  04A3                     u1685:	
  2911  04A3  1C03               	skipc
  2912  04A4  2CB3               	goto	l1465
  2913  04A5  30FF               	movlw	255
  2914  04A6  1283               	bcf	3,5	;RP0=0, select bank0
  2915  04A7  1303               	bcf	3,6	;RP1=0, select bank0
  2916  04A8  00C2               	movwf	___fldiv@new_exp
  2917  04A9  3000               	movlw	0
  2918  04AA  00C3               	movwf	___fldiv@new_exp+1
  2919  04AB  3000               	movlw	0
  2920  04AC  00B7               	movwf	___fldiv@b+3
  2921  04AD  3000               	movlw	0
  2922  04AE  00B6               	movwf	___fldiv@b+2
  2923  04AF  3000               	movlw	0
  2924  04B0  00B5               	movwf	___fldiv@b+1
  2925  04B1  3000               	movlw	0
  2926  04B2  00B4               	movwf	___fldiv@b
  2927  04B3                     l1465:	
  2928  04B3  1283               	bcf	3,5	;RP0=0, select bank0
  2929  04B4  1303               	bcf	3,6	;RP1=0, select bank0
  2930  04B5  0843               	movf	___fldiv@new_exp+1,w
  2931  04B6  3A80               	xorlw	128
  2932  04B7  00FF               	movwf	127
  2933  04B8  3080               	movlw	128
  2934  04B9  027F               	subwf	127,w
  2935  04BA  1D03               	skipz
  2936  04BB  2CBE               	goto	u1695
  2937  04BC  3001               	movlw	1
  2938  04BD  0242               	subwf	___fldiv@new_exp,w
  2939  04BE                     u1695:	
  2940  04BE  1803               	skipnc
  2941  04BF  2CCD               	goto	l570
  2942  04C0  1283               	bcf	3,5	;RP0=0, select bank0
  2943  04C1  1303               	bcf	3,6	;RP1=0, select bank0
  2944  04C2  01C2               	clrf	___fldiv@new_exp
  2945  04C3  01C3               	clrf	___fldiv@new_exp+1
  2946  04C4  3000               	movlw	0
  2947  04C5  00B7               	movwf	___fldiv@b+3
  2948  04C6  3000               	movlw	0
  2949  04C7  00B6               	movwf	___fldiv@b+2
  2950  04C8  3000               	movlw	0
  2951  04C9  00B5               	movwf	___fldiv@b+1
  2952  04CA  3000               	movlw	0
  2953  04CB  00B4               	movwf	___fldiv@b
  2954  04CC  01C1               	clrf	___fldiv@sign
  2955  04CD                     l570:	
  2956  04CD  1283               	bcf	3,5	;RP0=0, select bank0
  2957  04CE  1303               	bcf	3,6	;RP1=0, select bank0
  2958  04CF  0842               	movf	___fldiv@new_exp,w
  2959  04D0  00B8               	movwf	??___fldiv
  2960  04D1  0838               	movf	??___fldiv,w
  2961  04D2  00C8               	movwf	___fldiv@bexp
  2962  04D3  1C48               	btfss	___fldiv@bexp,0
  2963  04D4  2CD7               	goto	l1477
  2964  04D5  17B6               	bsf	___fldiv@b+2,7
  2965  04D6  2CDB               	goto	l572
  2966  04D7                     l1477:	
  2967  04D7  307F               	movlw	127
  2968  04D8  00B8               	movwf	??___fldiv
  2969  04D9  0838               	movf	??___fldiv,w
  2970  04DA  05B6               	andwf	___fldiv@b+2,f
  2971  04DB                     l572:	
  2972  04DB  0848               	movf	___fldiv@bexp,w
  2973  04DC  00B8               	movwf	??___fldiv
  2974  04DD  1003               	clrc
  2975  04DE  0C38               	rrf	??___fldiv,w
  2976  04DF  00B9               	movwf	??___fldiv+1
  2977  04E0  0839               	movf	??___fldiv+1,w
  2978  04E1  00B7               	movwf	___fldiv@b+3
  2979  04E2  2BA0               	goto	L1
  2980  04E3                     __end_of___fldiv:	
  2981                           
  2982                           	psect	text8
  2983  0EC7                     __ptext8:	
  2984 ;; *************** function _pwmInit2 *****************
  2985 ;; Defined at:
  2986 ;;		line 15 in file "./pwm.h"
  2987 ;; Parameters:    Size  Location     Type
  2988 ;;  freq            2    8[BANK0 ] unsigned int 
  2989 ;; Auto vars:     Size  Location     Type
  2990 ;;		None
  2991 ;; Return value:  Size  Location     Type
  2992 ;;                  1    wreg      void 
  2993 ;; Registers used:
  2994 ;;		wreg, status,2, status,0, pclath, cstack
  2995 ;; Tracked objects:
  2996 ;;		On entry : 0/0
  2997 ;;		On exit  : 0/0
  2998 ;;		Unchanged: 0/0
  2999 ;; Data sizes:     COMMON   BANK0   BANK1   BANK3   BANK2
  3000 ;;      Params:         0       2       0       0       0
  3001 ;;      Locals:         0       0       0       0       0
  3002 ;;      Temps:          0       0       0       0       0
  3003 ;;      Totals:         0       2       0       0       0
  3004 ;;Total ram usage:        2 bytes
  3005 ;; Hardware stack levels used:    1
  3006 ;; Hardware stack levels required when called:    2
  3007 ;; This function calls:
  3008 ;;		_setPR2
  3009 ;;		_setTMR2
  3010 ;; This function is called by:
  3011 ;;		_main
  3012 ;; This function uses a non-reentrant model
  3013 ;;
  3014                           
  3015                           
  3016                           ;psect for function _pwmInit2
  3017  0EC7                     _pwmInit2:	
  3018                           
  3019                           ;./pwm.h: 16:     FREQ2 = freq;
  3020                           
  3021                           ;incstack = 0
  3022                           ; Regs used in _pwmInit2: [wreg+status,2+status,0+pclath+cstack]
  3023  0EC7  1283               	bcf	3,5	;RP0=0, select bank0
  3024  0EC8  1303               	bcf	3,6	;RP1=0, select bank0
  3025  0EC9  0829               	movf	pwmInit2@freq+1,w
  3026  0ECA  1683               	bsf	3,5	;RP0=1, select bank1
  3027  0ECB  1303               	bcf	3,6	;RP1=0, select bank1
  3028  0ECC  00AB               	movwf	(_FREQ2+1)^(0+128)
  3029  0ECD  1283               	bcf	3,5	;RP0=0, select bank0
  3030  0ECE  1303               	bcf	3,6	;RP1=0, select bank0
  3031  0ECF  0828               	movf	pwmInit2@freq,w
  3032  0ED0  1683               	bsf	3,5	;RP0=1, select bank1
  3033  0ED1  1303               	bcf	3,6	;RP1=0, select bank1
  3034  0ED2  00AA               	movwf	_FREQ2^(0+128)
  3035                           
  3036                           ;./pwm.h: 17:     setPR2(freq);
  3037  0ED3  1283               	bcf	3,5	;RP0=0, select bank0
  3038  0ED4  1303               	bcf	3,6	;RP1=0, select bank0
  3039  0ED5  0829               	movf	pwmInit2@freq+1,w
  3040  0ED6  00A7               	movwf	setPR2@freq+1
  3041  0ED7  0828               	movf	pwmInit2@freq,w
  3042  0ED8  00A6               	movwf	setPR2@freq
  3043  0ED9  120A  158A  2745  120A  158A  	fcall	_setPR2
  3044                           
  3045                           ;./pwm.h: 18:     setTMR2(2);
  3046  0EDE  3002               	movlw	2
  3047  0EDF  120A  158A  26E3   	fcall	_setTMR2
  3048  0EE2  0008               	return
  3049  0EE3                     __end_of_pwmInit2:	
  3050                           
  3051                           	psect	text9
  3052  0EAB                     __ptext9:	
  3053 ;; *************** function _pwmInit1 *****************
  3054 ;; Defined at:
  3055 ;;		line 9 in file "./pwm.h"
  3056 ;; Parameters:    Size  Location     Type
  3057 ;;  freq            2    8[BANK0 ] const unsigned int 
  3058 ;; Auto vars:     Size  Location     Type
  3059 ;;		None
  3060 ;; Return value:  Size  Location     Type
  3061 ;;                  1    wreg      void 
  3062 ;; Registers used:
  3063 ;;		wreg, status,2, status,0, pclath, cstack
  3064 ;; Tracked objects:
  3065 ;;		On entry : 0/0
  3066 ;;		On exit  : 0/0
  3067 ;;		Unchanged: 0/0
  3068 ;; Data sizes:     COMMON   BANK0   BANK1   BANK3   BANK2
  3069 ;;      Params:         0       2       0       0       0
  3070 ;;      Locals:         0       0       0       0       0
  3071 ;;      Temps:          0       0       0       0       0
  3072 ;;      Totals:         0       2       0       0       0
  3073 ;;Total ram usage:        2 bytes
  3074 ;; Hardware stack levels used:    1
  3075 ;; Hardware stack levels required when called:    2
  3076 ;; This function calls:
  3077 ;;		_setPR2
  3078 ;;		_setTMR2
  3079 ;; This function is called by:
  3080 ;;		_main
  3081 ;; This function uses a non-reentrant model
  3082 ;;
  3083                           
  3084                           
  3085                           ;psect for function _pwmInit1
  3086  0EAB                     _pwmInit1:	
  3087                           
  3088                           ;./pwm.h: 10:     FREQ1 = freq;
  3089                           
  3090                           ;incstack = 0
  3091                           ; Regs used in _pwmInit1: [wreg+status,2+status,0+pclath+cstack]
  3092  0EAB  1283               	bcf	3,5	;RP0=0, select bank0
  3093  0EAC  1303               	bcf	3,6	;RP1=0, select bank0
  3094  0EAD  0829               	movf	pwmInit1@freq+1,w
  3095  0EAE  1683               	bsf	3,5	;RP0=1, select bank1
  3096  0EAF  1303               	bcf	3,6	;RP1=0, select bank1
  3097  0EB0  00A9               	movwf	(_FREQ1+1)^(0+128)
  3098  0EB1  1283               	bcf	3,5	;RP0=0, select bank0
  3099  0EB2  1303               	bcf	3,6	;RP1=0, select bank0
  3100  0EB3  0828               	movf	pwmInit1@freq,w
  3101  0EB4  1683               	bsf	3,5	;RP0=1, select bank1
  3102  0EB5  1303               	bcf	3,6	;RP1=0, select bank1
  3103  0EB6  00A8               	movwf	_FREQ1^(0+128)
  3104                           
  3105                           ;./pwm.h: 11:     setPR2(freq);
  3106  0EB7  1283               	bcf	3,5	;RP0=0, select bank0
  3107  0EB8  1303               	bcf	3,6	;RP1=0, select bank0
  3108  0EB9  0829               	movf	pwmInit1@freq+1,w
  3109  0EBA  00A7               	movwf	setPR2@freq+1
  3110  0EBB  0828               	movf	pwmInit1@freq,w
  3111  0EBC  00A6               	movwf	setPR2@freq
  3112  0EBD  120A  158A  2745  120A  158A  	fcall	_setPR2
  3113                           
  3114                           ;./pwm.h: 12:     setTMR2(1);
  3115  0EC2  3001               	movlw	1
  3116  0EC3  120A  158A  26E3   	fcall	_setTMR2
  3117  0EC6  0008               	return
  3118  0EC7                     __end_of_pwmInit1:	
  3119                           
  3120                           	psect	text10
  3121  0EE3                     __ptext10:	
  3122 ;; *************** function _setTMR2 *****************
  3123 ;; Defined at:
  3124 ;;		line 38 in file "./pwm.h"
  3125 ;; Parameters:    Size  Location     Type
  3126 ;;  pwm             1    wreg     const unsigned char 
  3127 ;; Auto vars:     Size  Location     Type
  3128 ;;  pwm             1    0[COMMON] const unsigned char 
  3129 ;; Return value:  Size  Location     Type
  3130 ;;                  1    wreg      void 
  3131 ;; Registers used:
  3132 ;;		wreg, status,2, status,0
  3133 ;; Tracked objects:
  3134 ;;		On entry : 0/0
  3135 ;;		On exit  : 0/0
  3136 ;;		Unchanged: 0/0
  3137 ;; Data sizes:     COMMON   BANK0   BANK1   BANK3   BANK2
  3138 ;;      Params:         0       0       0       0       0
  3139 ;;      Locals:         1       0       0       0       0
  3140 ;;      Temps:          0       0       0       0       0
  3141 ;;      Totals:         1       0       0       0       0
  3142 ;;Total ram usage:        1 bytes
  3143 ;; Hardware stack levels used:    1
  3144 ;; This function calls:
  3145 ;;		Nothing
  3146 ;; This function is called by:
  3147 ;;		_pwmInit1
  3148 ;;		_pwmInit2
  3149 ;; This function uses a non-reentrant model
  3150 ;;
  3151                           
  3152                           
  3153                           ;psect for function _setTMR2
  3154  0EE3                     _setTMR2:	
  3155                           
  3156                           ;incstack = 0
  3157                           ; Regs used in _setTMR2: [wreg+status,2+status,0]
  3158                           ;setTMR2@pwm stored from wreg
  3159  0EE3  00F0               	movwf	setTMR2@pwm
  3160                           
  3161                           ;./pwm.h: 39:     if (pwm == 2) {
  3162  0EE4  3002               	movlw	2
  3163  0EE5  0670               	xorwf	setTMR2@pwm,w
  3164  0EE6  1D03               	btfss	3,2
  3165  0EE7  2EED               	goto	l79
  3166                           
  3167                           ;./pwm.h: 40:         CCP2M3 = 1;
  3168  0EE8  1283               	bcf	3,5	;RP0=0, select bank0
  3169  0EE9  1303               	bcf	3,6	;RP1=0, select bank0
  3170  0EEA  159D               	bsf	29,3	;volatile
  3171                           
  3172                           ;./pwm.h: 41:         CCP2M2 = 1;
  3173  0EEB  151D               	bsf	29,2	;volatile
  3174                           
  3175                           ;./pwm.h: 42:     } else {
  3176  0EEC  2EF1               	goto	l83
  3177  0EED                     l79:	
  3178                           
  3179                           ;./pwm.h: 43:         CCP1M3 = 1;
  3180  0EED  1283               	bcf	3,5	;RP0=0, select bank0
  3181  0EEE  1303               	bcf	3,6	;RP1=0, select bank0
  3182  0EEF  1597               	bsf	23,3	;volatile
  3183                           
  3184                           ;./pwm.h: 44:         CCP1M2 = 1;
  3185  0EF0  1517               	bsf	23,2	;volatile
  3186  0EF1                     l83:	
  3187                           
  3188                           ;./pwm.h: 53:         T2CKPS0 = 1;
  3189  0EF1  1412               	bsf	18,0	;volatile
  3190                           
  3191                           ;./pwm.h: 54:         T2CKPS1 = 1;
  3192  0EF2  1492               	bsf	18,1	;volatile
  3193                           
  3194                           ;./pwm.h: 56:     TMR2ON = 1;
  3195  0EF3  1512               	bsf	18,2	;volatile
  3196                           
  3197                           ;./pwm.h: 57:     if (pwm == 2)
  3198  0EF4  3002               	movlw	2
  3199  0EF5  0670               	xorwf	setTMR2@pwm,w
  3200  0EF6  1D03               	btfss	3,2
  3201  0EF7  2EFC               	goto	l85
  3202                           
  3203                           ;./pwm.h: 58:         TRISC2 = 0;
  3204  0EF8  1683               	bsf	3,5	;RP0=1, select bank1
  3205  0EF9  1303               	bcf	3,6	;RP1=0, select bank1
  3206  0EFA  1107               	bcf	7,2	;volatile
  3207  0EFB  0008               	return
  3208  0EFC                     l85:	
  3209                           ;./pwm.h: 59:     else
  3210                           
  3211                           
  3212                           ;./pwm.h: 60:         TRISC1 = 0;
  3213  0EFC  1683               	bsf	3,5	;RP0=1, select bank1
  3214  0EFD  1303               	bcf	3,6	;RP1=0, select bank1
  3215  0EFE  1087               	bcf	7,1	;volatile
  3216  0EFF  0008               	return
  3217  0F00                     __end_of_setTMR2:	
  3218                           
  3219                           	psect	text11
  3220  0F45                     __ptext11:	
  3221 ;; *************** function _setPR2 *****************
  3222 ;; Defined at:
  3223 ;;		line 63 in file "./pwm.h"
  3224 ;; Parameters:    Size  Location     Type
  3225 ;;  freq            2    6[BANK0 ] const unsigned int 
  3226 ;; Auto vars:     Size  Location     Type
  3227 ;;		None
  3228 ;; Return value:  Size  Location     Type
  3229 ;;                  1    wreg      void 
  3230 ;; Registers used:
  3231 ;;		wreg, status,2, status,0, pclath, cstack
  3232 ;; Tracked objects:
  3233 ;;		On entry : 0/0
  3234 ;;		On exit  : 0/0
  3235 ;;		Unchanged: 0/0
  3236 ;; Data sizes:     COMMON   BANK0   BANK1   BANK3   BANK2
  3237 ;;      Params:         0       2       0       0       0
  3238 ;;      Locals:         0       0       0       0       0
  3239 ;;      Temps:          2       0       0       0       0
  3240 ;;      Totals:         2       2       0       0       0
  3241 ;;Total ram usage:        4 bytes
  3242 ;; Hardware stack levels used:    1
  3243 ;; Hardware stack levels required when called:    1
  3244 ;; This function calls:
  3245 ;;		___aldiv
  3246 ;; This function is called by:
  3247 ;;		_pwmInit1
  3248 ;;		_pwmInit2
  3249 ;; This function uses a non-reentrant model
  3250 ;;
  3251                           
  3252                           
  3253                           ;psect for function _setPR2
  3254  0F45                     _setPR2:	
  3255                           
  3256                           ;./pwm.h: 64:     PR2 = (4000000 / (freq * 4 * 16)) - 1;
  3257                           
  3258                           ;incstack = 0
  3259                           ; Regs used in _setPR2: [wreg+status,2+status,0+pclath+cstack]
  3260  0F45  1283               	bcf	3,5	;RP0=0, select bank0
  3261  0F46  1303               	bcf	3,6	;RP1=0, select bank0
  3262  0F47  0827               	movf	setPR2@freq+1,w
  3263  0F48  00FA               	movwf	??_setPR2+1
  3264  0F49  0826               	movf	setPR2@freq,w
  3265  0F4A  00F9               	movwf	??_setPR2
  3266  0F4B  1003               	clrc
  3267  0F4C  0DF9               	rlf	??_setPR2,f
  3268  0F4D  0DFA               	rlf	??_setPR2+1,f
  3269  0F4E  1003               	clrc
  3270  0F4F  0DF9               	rlf	??_setPR2,f
  3271  0F50  0DFA               	rlf	??_setPR2+1,f
  3272  0F51  0EF9               	swapf	??_setPR2,f
  3273  0F52  0EFA               	swapf	??_setPR2+1,f
  3274  0F53  30F0               	movlw	240
  3275  0F54  05FA               	andwf	??_setPR2+1,f
  3276  0F55  0879               	movf	??_setPR2,w
  3277  0F56  390F               	andlw	15
  3278  0F57  04FA               	iorwf	??_setPR2+1,f
  3279  0F58  30F0               	movlw	240
  3280  0F59  05F9               	andwf	??_setPR2,f
  3281  0F5A  0879               	movf	??_setPR2,w
  3282  0F5B  00F0               	movwf	___aldiv@divisor
  3283  0F5C  087A               	movf	??_setPR2+1,w
  3284  0F5D  00F1               	movwf	___aldiv@divisor+1
  3285  0F5E  01F2               	clrf	___aldiv@divisor+2
  3286  0F5F  01F3               	clrf	___aldiv@divisor+3
  3287  0F60  3000               	movlw	0
  3288  0F61  00F7               	movwf	___aldiv@dividend+3
  3289  0F62  303D               	movlw	61
  3290  0F63  00F6               	movwf	___aldiv@dividend+2
  3291  0F64  3009               	movlw	9
  3292  0F65  00F5               	movwf	___aldiv@dividend+1
  3293  0F66  3000               	movlw	0
  3294  0F67  00F4               	movwf	___aldiv@dividend
  3295  0F68  120A  158A  2771   	fcall	___aldiv
  3296  0F6B  0870               	movf	?___aldiv,w
  3297  0F6C  3EFF               	addlw	255
  3298  0F6D  1683               	bsf	3,5	;RP0=1, select bank1
  3299  0F6E  1303               	bcf	3,6	;RP1=0, select bank1
  3300  0F6F  0092               	movwf	18	;volatile
  3301  0F70  0008               	return
  3302  0F71                     __end_of_setPR2:	
  3303                           
  3304                           	psect	text12
  3305  0F71                     __ptext12:	
  3306 ;; *************** function ___aldiv *****************
  3307 ;; Defined at:
  3308 ;;		line 5 in file "C:\Program Files (x86)\Microchip\xc8\v2.05\pic\sources\c90\common\aldiv.c"
  3309 ;; Parameters:    Size  Location     Type
  3310 ;;  divisor         4    0[COMMON] long 
  3311 ;;  dividend        4    4[COMMON] long 
  3312 ;; Auto vars:     Size  Location     Type
  3313 ;;  quotient        4    2[BANK0 ] long 
  3314 ;;  sign            1    1[BANK0 ] unsigned char 
  3315 ;;  counter         1    0[BANK0 ] unsigned char 
  3316 ;; Return value:  Size  Location     Type
  3317 ;;                  4    0[COMMON] long 
  3318 ;; Registers used:
  3319 ;;		wreg, status,2, status,0
  3320 ;; Tracked objects:
  3321 ;;		On entry : 0/0
  3322 ;;		On exit  : 0/0
  3323 ;;		Unchanged: 0/0
  3324 ;; Data sizes:     COMMON   BANK0   BANK1   BANK3   BANK2
  3325 ;;      Params:         8       0       0       0       0
  3326 ;;      Locals:         0       6       0       0       0
  3327 ;;      Temps:          1       0       0       0       0
  3328 ;;      Totals:         9       6       0       0       0
  3329 ;;Total ram usage:       15 bytes
  3330 ;; Hardware stack levels used:    1
  3331 ;; This function calls:
  3332 ;;		Nothing
  3333 ;; This function is called by:
  3334 ;;		_pwmSetDutyCycle1
  3335 ;;		_pwmSetDutyCycle2
  3336 ;;		_setPR2
  3337 ;; This function uses a non-reentrant model
  3338 ;;
  3339                           
  3340                           
  3341                           ;psect for function ___aldiv
  3342  0F71                     ___aldiv:	
  3343                           
  3344                           ;incstack = 0
  3345                           ; Regs used in ___aldiv: [wreg+status,2+status,0]
  3346  0F71  1283               	bcf	3,5	;RP0=0, select bank0
  3347  0F72  1303               	bcf	3,6	;RP1=0, select bank0
  3348  0F73  01A1               	clrf	___aldiv@sign
  3349  0F74  1FF3               	btfss	___aldiv@divisor+3,7
  3350  0F75  2F83               	goto	l264
  3351  0F76  09F0               	comf	___aldiv@divisor,f
  3352  0F77  09F1               	comf	___aldiv@divisor+1,f
  3353  0F78  09F2               	comf	___aldiv@divisor+2,f
  3354  0F79  09F3               	comf	___aldiv@divisor+3,f
  3355  0F7A  0AF0               	incf	___aldiv@divisor,f
  3356  0F7B  1903               	skipnz
  3357  0F7C  0AF1               	incf	___aldiv@divisor+1,f
  3358  0F7D  1903               	skipnz
  3359  0F7E  0AF2               	incf	___aldiv@divisor+2,f
  3360  0F7F  1903               	skipnz
  3361  0F80  0AF3               	incf	___aldiv@divisor+3,f
  3362  0F81  01A1               	clrf	___aldiv@sign
  3363  0F82  0AA1               	incf	___aldiv@sign,f
  3364  0F83                     l264:	
  3365  0F83  1FF7               	btfss	___aldiv@dividend+3,7
  3366  0F84  2F94               	goto	l1247
  3367  0F85  09F4               	comf	___aldiv@dividend,f
  3368  0F86  09F5               	comf	___aldiv@dividend+1,f
  3369  0F87  09F6               	comf	___aldiv@dividend+2,f
  3370  0F88  09F7               	comf	___aldiv@dividend+3,f
  3371  0F89  0AF4               	incf	___aldiv@dividend,f
  3372  0F8A  1903               	skipnz
  3373  0F8B  0AF5               	incf	___aldiv@dividend+1,f
  3374  0F8C  1903               	skipnz
  3375  0F8D  0AF6               	incf	___aldiv@dividend+2,f
  3376  0F8E  1903               	skipnz
  3377  0F8F  0AF7               	incf	___aldiv@dividend+3,f
  3378  0F90  3001               	movlw	1
  3379  0F91  00F8               	movwf	??___aldiv
  3380  0F92  0878               	movf	??___aldiv,w
  3381  0F93  06A1               	xorwf	___aldiv@sign,f
  3382  0F94                     l1247:	
  3383  0F94  3000               	movlw	0
  3384  0F95  00A5               	movwf	___aldiv@quotient+3
  3385  0F96  3000               	movlw	0
  3386  0F97  00A4               	movwf	___aldiv@quotient+2
  3387  0F98  3000               	movlw	0
  3388  0F99  00A3               	movwf	___aldiv@quotient+1
  3389  0F9A  3000               	movlw	0
  3390  0F9B  00A2               	movwf	___aldiv@quotient
  3391  0F9C  0873               	movf	___aldiv@divisor+3,w
  3392  0F9D  0472               	iorwf	___aldiv@divisor+2,w
  3393  0F9E  0471               	iorwf	___aldiv@divisor+1,w
  3394  0F9F  0470               	iorwf	___aldiv@divisor,w
  3395  0FA0  1903               	skipnz
  3396  0FA1  2FE9               	goto	l1269
  3397  0FA2  01A0               	clrf	___aldiv@counter
  3398  0FA3  0AA0               	incf	___aldiv@counter,f
  3399  0FA4                     l1255:	
  3400  0FA4  1BF3               	btfsc	___aldiv@divisor+3,7
  3401  0FA5  2FB4               	goto	l1257
  3402  0FA6  3001               	movlw	1
  3403  0FA7  00F8               	movwf	??___aldiv
  3404  0FA8                     u1205:	
  3405  0FA8  1003               	clrc
  3406  0FA9  0DF0               	rlf	___aldiv@divisor,f
  3407  0FAA  0DF1               	rlf	___aldiv@divisor+1,f
  3408  0FAB  0DF2               	rlf	___aldiv@divisor+2,f
  3409  0FAC  0DF3               	rlf	___aldiv@divisor+3,f
  3410  0FAD  0BF8               	decfsz	??___aldiv,f
  3411  0FAE  2FA8               	goto	u1205
  3412  0FAF  3001               	movlw	1
  3413  0FB0  00F8               	movwf	??___aldiv
  3414  0FB1  0878               	movf	??___aldiv,w
  3415  0FB2  07A0               	addwf	___aldiv@counter,f
  3416  0FB3  2FA4               	goto	l1255
  3417  0FB4                     l1257:	
  3418  0FB4  3001               	movlw	1
  3419  0FB5  00F8               	movwf	??___aldiv
  3420  0FB6                     u1225:	
  3421  0FB6  1003               	clrc
  3422  0FB7  0DA2               	rlf	___aldiv@quotient,f
  3423  0FB8  0DA3               	rlf	___aldiv@quotient+1,f
  3424  0FB9  0DA4               	rlf	___aldiv@quotient+2,f
  3425  0FBA  0DA5               	rlf	___aldiv@quotient+3,f
  3426  0FBB  0BF8               	decfsz	??___aldiv,f
  3427  0FBC  2FB6               	goto	u1225
  3428  0FBD  0873               	movf	___aldiv@divisor+3,w
  3429  0FBE  0277               	subwf	___aldiv@dividend+3,w
  3430  0FBF  1D03               	skipz
  3431  0FC0  2FCB               	goto	u1235
  3432  0FC1  0872               	movf	___aldiv@divisor+2,w
  3433  0FC2  0276               	subwf	___aldiv@dividend+2,w
  3434  0FC3  1D03               	skipz
  3435  0FC4  2FCB               	goto	u1235
  3436  0FC5  0871               	movf	___aldiv@divisor+1,w
  3437  0FC6  0275               	subwf	___aldiv@dividend+1,w
  3438  0FC7  1D03               	skipz
  3439  0FC8  2FCB               	goto	u1235
  3440  0FC9  0870               	movf	___aldiv@divisor,w
  3441  0FCA  0274               	subwf	___aldiv@dividend,w
  3442  0FCB                     u1235:	
  3443  0FCB  1C03               	skipc
  3444  0FCC  2FDC               	goto	l1265
  3445  0FCD  0870               	movf	___aldiv@divisor,w
  3446  0FCE  02F4               	subwf	___aldiv@dividend,f
  3447  0FCF  0871               	movf	___aldiv@divisor+1,w
  3448  0FD0  1C03               	skipc
  3449  0FD1  0F71               	incfsz	___aldiv@divisor+1,w
  3450  0FD2  02F5               	subwf	___aldiv@dividend+1,f
  3451  0FD3  0872               	movf	___aldiv@divisor+2,w
  3452  0FD4  1C03               	skipc
  3453  0FD5  0F72               	incfsz	___aldiv@divisor+2,w
  3454  0FD6  02F6               	subwf	___aldiv@dividend+2,f
  3455  0FD7  0873               	movf	___aldiv@divisor+3,w
  3456  0FD8  1C03               	skipc
  3457  0FD9  0F73               	incfsz	___aldiv@divisor+3,w
  3458  0FDA  02F7               	subwf	___aldiv@dividend+3,f
  3459  0FDB  1422               	bsf	___aldiv@quotient,0
  3460  0FDC                     l1265:	
  3461  0FDC  3001               	movlw	1
  3462  0FDD                     u1245:	
  3463  0FDD  1003               	clrc
  3464  0FDE  0CF3               	rrf	___aldiv@divisor+3,f
  3465  0FDF  0CF2               	rrf	___aldiv@divisor+2,f
  3466  0FE0  0CF1               	rrf	___aldiv@divisor+1,f
  3467  0FE1  0CF0               	rrf	___aldiv@divisor,f
  3468  0FE2  3EFF               	addlw	-1
  3469  0FE3  1D03               	skipz
  3470  0FE4  2FDD               	goto	u1245
  3471  0FE5  3001               	movlw	1
  3472  0FE6  02A0               	subwf	___aldiv@counter,f
  3473  0FE7  1D03               	btfss	3,2
  3474  0FE8  2FB4               	goto	l1257
  3475  0FE9                     l1269:	
  3476  0FE9  0821               	movf	___aldiv@sign,w
  3477  0FEA  1903               	btfsc	3,2
  3478  0FEB  2FF7               	goto	l1273
  3479  0FEC  09A2               	comf	___aldiv@quotient,f
  3480  0FED  09A3               	comf	___aldiv@quotient+1,f
  3481  0FEE  09A4               	comf	___aldiv@quotient+2,f
  3482  0FEF  09A5               	comf	___aldiv@quotient+3,f
  3483  0FF0  0AA2               	incf	___aldiv@quotient,f
  3484  0FF1  1903               	skipnz
  3485  0FF2  0AA3               	incf	___aldiv@quotient+1,f
  3486  0FF3  1903               	skipnz
  3487  0FF4  0AA4               	incf	___aldiv@quotient+2,f
  3488  0FF5  1903               	skipnz
  3489  0FF6  0AA5               	incf	___aldiv@quotient+3,f
  3490  0FF7                     l1273:	
  3491  0FF7  0825               	movf	___aldiv@quotient+3,w
  3492  0FF8  00F3               	movwf	?___aldiv+3
  3493  0FF9  0824               	movf	___aldiv@quotient+2,w
  3494  0FFA  00F2               	movwf	?___aldiv+2
  3495  0FFB  0823               	movf	___aldiv@quotient+1,w
  3496  0FFC  00F1               	movwf	?___aldiv+1
  3497  0FFD  0822               	movf	___aldiv@quotient,w
  3498  0FFE  00F0               	movwf	?___aldiv
  3499  0FFF  0008               	return
  3500  1000                     __end_of___aldiv:	
  3501                           
  3502                           	psect	text13
  3503  0F00                     __ptext13:	
  3504 ;; *************** function _adcRead *****************
  3505 ;; Defined at:
  3506 ;;		line 35 in file "./adc.h"
  3507 ;; Parameters:    Size  Location     Type
  3508 ;;  adcChannel      2    0[COMMON] const int 
  3509 ;; Auto vars:     Size  Location     Type
  3510 ;;		None
  3511 ;; Return value:  Size  Location     Type
  3512 ;;                  2    0[COMMON] int 
  3513 ;; Registers used:
  3514 ;;		wreg, status,2, status,0
  3515 ;; Tracked objects:
  3516 ;;		On entry : 0/0
  3517 ;;		On exit  : 0/0
  3518 ;;		Unchanged: 0/0
  3519 ;; Data sizes:     COMMON   BANK0   BANK1   BANK3   BANK2
  3520 ;;      Params:         2       0       0       0       0
  3521 ;;      Locals:         0       0       0       0       0
  3522 ;;      Temps:          2       0       0       0       0
  3523 ;;      Totals:         4       0       0       0       0
  3524 ;;Total ram usage:        4 bytes
  3525 ;; Hardware stack levels used:    1
  3526 ;; This function calls:
  3527 ;;		Nothing
  3528 ;; This function is called by:
  3529 ;;		_main
  3530 ;; This function uses a non-reentrant model
  3531 ;;
  3532                           
  3533                           
  3534                           ;psect for function _adcRead
  3535  0F00                     _adcRead:	
  3536                           
  3537                           ;./adc.h: 36:     ADCON0bits.ADON = 1;
  3538                           
  3539                           ;incstack = 0
  3540                           ; Regs used in _adcRead: [wreg+status,2+status,0]
  3541  0F00  1283               	bcf	3,5	;RP0=0, select bank0
  3542  0F01  1303               	bcf	3,6	;RP1=0, select bank0
  3543  0F02  141F               	bsf	31,0	;volatile
  3544                           
  3545                           ;./adc.h: 37:     ADCON0bits.CHS = adcChannel;
  3546  0F03  0870               	movf	adcRead@adcChannel,w
  3547  0F04  00F2               	movwf	??_adcRead
  3548  0F05  0DF2               	rlf	??_adcRead,f
  3549  0F06  0DF2               	rlf	??_adcRead,f
  3550  0F07  0DF2               	rlf	??_adcRead,f
  3551  0F08  081F               	movf	31,w	;volatile
  3552  0F09  0672               	xorwf	??_adcRead,w
  3553  0F0A  39C7               	andlw	-57
  3554  0F0B  0672               	xorwf	??_adcRead,w
  3555  0F0C  009F               	movwf	31	;volatile
  3556                           
  3557                           ;./adc.h: 38:     _delay((unsigned long)((10)*(4000000/4000.0)));
  3558  0F0D  300D               	movlw	13
  3559  0F0E  00F3               	movwf	??_adcRead+1
  3560  0F0F  30FB               	movlw	251
  3561  0F10  00F2               	movwf	??_adcRead
  3562  0F11                     u2367:	
  3563  0F11  0BF2               	decfsz	??_adcRead,f
  3564  0F12  2F11               	goto	u2367
  3565  0F13  0BF3               	decfsz	??_adcRead+1,f
  3566  0F14  2F11               	goto	u2367
  3567  0F15  2F16               	nop2
  3568                           
  3569                           ;./adc.h: 39:     ADCON0bits.GO = 1;
  3570  0F16  1283               	bcf	3,5	;RP0=0, select bank0
  3571  0F17  1303               	bcf	3,6	;RP1=0, select bank0
  3572  0F18  151F               	bsf	31,2	;volatile
  3573  0F19                     l96:	
  3574                           ;./adc.h: 40:     while (ADCON0bits.GO_DONE);
  3575                           
  3576  0F19  191F               	btfsc	31,2	;volatile
  3577  0F1A  2F19               	goto	l96
  3578                           
  3579                           ;./adc.h: 42:     return (ADRESH << 8) + (ADRESL);
  3580  0F1B  081E               	movf	30,w	;volatile
  3581  0F1C  00F1               	movwf	?_adcRead+1
  3582  0F1D  1683               	bsf	3,5	;RP0=1, select bank1
  3583  0F1E  1303               	bcf	3,6	;RP1=0, select bank1
  3584  0F1F  081E               	movf	30,w	;volatile
  3585  0F20  00F0               	movwf	?_adcRead
  3586  0F21  0008               	return
  3587  0F22                     __end_of_adcRead:	
  3588                           
  3589                           	psect	text14
  3590  0E9B                     __ptext14:	
  3591 ;; *************** function _adcInit *****************
  3592 ;; Defined at:
  3593 ;;		line 1 in file "./adc.h"
  3594 ;; Parameters:    Size  Location     Type
  3595 ;;		None
  3596 ;; Auto vars:     Size  Location     Type
  3597 ;;		None
  3598 ;; Return value:  Size  Location     Type
  3599 ;;                  1    wreg      void 
  3600 ;; Registers used:
  3601 ;;		wreg, status,2, status,0
  3602 ;; Tracked objects:
  3603 ;;		On entry : 0/0
  3604 ;;		On exit  : 0/0
  3605 ;;		Unchanged: 0/0
  3606 ;; Data sizes:     COMMON   BANK0   BANK1   BANK3   BANK2
  3607 ;;      Params:         0       0       0       0       0
  3608 ;;      Locals:         0       0       0       0       0
  3609 ;;      Temps:          0       0       0       0       0
  3610 ;;      Totals:         0       0       0       0       0
  3611 ;;Total ram usage:        0 bytes
  3612 ;; Hardware stack levels used:    1
  3613 ;; This function calls:
  3614 ;;		Nothing
  3615 ;; This function is called by:
  3616 ;;		_main
  3617 ;; This function uses a non-reentrant model
  3618 ;;
  3619                           
  3620                           
  3621                           ;psect for function _adcInit
  3622  0E9B                     _adcInit:	
  3623                           
  3624                           ;./adc.h: 11:     ADCON0bits.ADCS = 0b01;
  3625                           
  3626                           ;incstack = 0
  3627                           ; Regs used in _adcInit: [wreg+status,2+status,0]
  3628  0E9B  1283               	bcf	3,5	;RP0=0, select bank0
  3629  0E9C  1303               	bcf	3,6	;RP1=0, select bank0
  3630  0E9D  081F               	movf	31,w	;volatile
  3631  0E9E  393F               	andlw	-193
  3632  0E9F  3840               	iorlw	64
  3633  0EA0  009F               	movwf	31	;volatile
  3634                           
  3635                           ;./adc.h: 12:     ADCON0bits.CHS = 0b000;
  3636  0EA1  30C7               	movlw	-57
  3637  0EA2  059F               	andwf	31,f	;volatile
  3638                           
  3639                           ;./adc.h: 13:     ADCON0bits.ADON = 0;
  3640  0EA3  101F               	bcf	31,0	;volatile
  3641                           
  3642                           ;./adc.h: 24:     ADCON1bits.ADFM = 1;
  3643  0EA4  1683               	bsf	3,5	;RP0=1, select bank1
  3644  0EA5  1303               	bcf	3,6	;RP1=0, select bank1
  3645  0EA6  179F               	bsf	31,7	;volatile
  3646                           
  3647                           ;./adc.h: 25:     ADCON1bits.ADCS2 = 1;
  3648  0EA7  171F               	bsf	31,6	;volatile
  3649                           
  3650                           ;./adc.h: 26:     ADCON1bits.PCFG = 0b0000;
  3651  0EA8  30F0               	movlw	-16
  3652  0EA9  059F               	andwf	31,f	;volatile
  3653  0EAA  0008               	return
  3654  0EAB                     __end_of_adcInit:	
  3655  007E                     btemp	set	126	;btemp
  3656  007E                     wtemp0	set	126


Data Sizes:
    Strings     0
    Constant    1
    Data        0
    BSS         2
    Persistent  2
    Stack       0

Auto Spaces:
    Space          Size  Autos    Used
    COMMON           14     13      13
    BANK0            80     79      79
    BANK1            80      8      12
    BANK3            96      0       0
    BANK2            96      0       0

Pointer List with Targets:

    None.

Critical Paths under _main in COMMON

    _pwmSetDutyCycle2->___xxtofl
    _pwmSetDutyCycle1->___xxtofl
    ___xxtofl->___aldiv
    ___fltol->___xxtofl
    ___flmul->___xxtofl
    ___fldiv->___xxtofl
    _pwmInit2->_setPR2
    _pwmInit1->_setPR2
    _setPR2->___aldiv

Critical Paths under _main in BANK0

    _pwmSetDutyCycle2->___fltol
    _pwmSetDutyCycle1->___fltol
    ___xxtofl->___aldiv
    ___fltol->___flmul
    ___flmul->___fldiv
    ___fldiv->___xxtofl
    _pwmInit2->_setPR2
    _pwmInit1->_setPR2
    _setPR2->___aldiv

Critical Paths under _main in BANK1

    _main->_pwmSetDutyCycle1
    _main->_pwmSetDutyCycle2

Critical Paths under _main in BANK3

    None.

Critical Paths under _main in BANK2

    None.

Call Graph Tables:

 ---------------------------------------------------------------------------------
 (Depth) Function   	        Calls       Base Space   Used Autos Params    Refs
 ---------------------------------------------------------------------------------
 (0) _main                                                 4     4      0   14545
                                              4 BANK1      4     4      0
                            _adcInit
                            _adcRead
                           _pwmInit1
                           _pwmInit2
                   _pwmSetDutyCycle1
                   _pwmSetDutyCycle2
 ---------------------------------------------------------------------------------
 (1) _pwmSetDutyCycle2                                     4     2      2    5998
                                              0 BANK1      4     2      2
                            ___aldiv
                            ___fldiv
                            ___flmul
                            ___fltol
                           ___xxtofl
                            _adcRead (ARG)
 ---------------------------------------------------------------------------------
 (1) _pwmSetDutyCycle1                                     4     2      2    6150
                                              0 BANK1      4     2      2
                            ___aldiv
                            ___fldiv
                            ___flmul
                            ___fltol
                           ___xxtofl
 ---------------------------------------------------------------------------------
 (2) ___xxtofl                                            14    10      4     626
                                              9 COMMON     4     4      0
                                              6 BANK0     10     6      4
                            ___aldiv (ARG)
 ---------------------------------------------------------------------------------
 (2) ___fltol                                             11     7      4     381
                                             68 BANK0     11     7      4
                            ___aldiv (ARG)
                            ___fldiv (ARG)
                            ___flmul (ARG)
                           ___xxtofl (ARG)
 ---------------------------------------------------------------------------------
 (2) ___flmul                                             26    18      8    2569
                                             42 BANK0     26    18      8
                          __Umul8_16
                            ___aldiv (ARG)
                            ___fldiv (ARG)
                           ___xxtofl (ARG)
 ---------------------------------------------------------------------------------
 (3) __Umul8_16                                            9     7      2     799
                                              0 COMMON     9     7      2
 ---------------------------------------------------------------------------------
 (2) ___fldiv                                             26    18      8    1425
                                             16 BANK0     26    18      8
                           ___xxtofl (ARG)
 ---------------------------------------------------------------------------------
 (1) _pwmInit2                                             2     0      2    1094
                                              8 BANK0      2     0      2
                             _setPR2
                            _setTMR2
 ---------------------------------------------------------------------------------
 (1) _pwmInit1                                             2     0      2    1094
                                              8 BANK0      2     0      2
                             _setPR2
                            _setTMR2
 ---------------------------------------------------------------------------------
 (2) _setTMR2                                              1     1      0      44
                                              0 COMMON     1     1      0
 ---------------------------------------------------------------------------------
 (2) _setPR2                                               4     2      2     930
                                              9 COMMON     2     2      0
                                              6 BANK0      2     0      2
                            ___aldiv
 ---------------------------------------------------------------------------------
 (2) ___aldiv                                             15     7      8     756
                                              0 COMMON     9     1      8
                                              0 BANK0      6     6      0
 ---------------------------------------------------------------------------------
 (1) _adcRead                                              4     2      2      98
                                              0 COMMON     4     2      2
 ---------------------------------------------------------------------------------
 (1) _adcInit                                              0     0      0       0
 ---------------------------------------------------------------------------------
 Estimated maximum stack depth 3
 ---------------------------------------------------------------------------------

 Call Graph Graphs:

 _main (ROOT)
   _adcInit
   _adcRead
   _pwmInit1
     _setPR2
       ___aldiv
     _setTMR2
   _pwmInit2
     _setPR2
       ___aldiv
     _setTMR2
   _pwmSetDutyCycle1
     ___aldiv
     ___fldiv
       ___xxtofl (ARG)
         ___aldiv (ARG)
     ___flmul
       __Umul8_16
       ___aldiv (ARG)
       ___fldiv (ARG)
         ___xxtofl (ARG)
           ___aldiv (ARG)
       ___xxtofl (ARG)
         ___aldiv (ARG)
     ___fltol
       ___aldiv (ARG)
       ___fldiv (ARG)
         ___xxtofl (ARG)
           ___aldiv (ARG)
       ___flmul (ARG)
         __Umul8_16
         ___aldiv (ARG)
         ___fldiv (ARG)
           ___xxtofl (ARG)
             ___aldiv (ARG)
         ___xxtofl (ARG)
           ___aldiv (ARG)
       ___xxtofl (ARG)
         ___aldiv (ARG)
     ___xxtofl
       ___aldiv (ARG)
   _pwmSetDutyCycle2
     ___aldiv
     ___fldiv
       ___xxtofl (ARG)
         ___aldiv (ARG)
     ___flmul
       __Umul8_16
       ___aldiv (ARG)
       ___fldiv (ARG)
         ___xxtofl (ARG)
           ___aldiv (ARG)
       ___xxtofl (ARG)
         ___aldiv (ARG)
     ___fltol
       ___aldiv (ARG)
       ___fldiv (ARG)
         ___xxtofl (ARG)
           ___aldiv (ARG)
       ___flmul (ARG)
         __Umul8_16
         ___aldiv (ARG)
         ___fldiv (ARG)
           ___xxtofl (ARG)
             ___aldiv (ARG)
         ___xxtofl (ARG)
           ___aldiv (ARG)
       ___xxtofl (ARG)
         ___aldiv (ARG)
     ___xxtofl
       ___aldiv (ARG)
     _adcRead (ARG)

 Address spaces:
Name               Size   Autos  Total    Cost      Usage
BITCOMMON            E      0       0       0        0.0%
EEDATA             100      0       0       0        0.0%
NULL                 0      0       0       0        0.0%
CODE                 0      0       0       0        0.0%
COMMON               E      D       D       1       92.9%
BITSFR0              0      0       0       1        0.0%
SFR0                 0      0       0       1        0.0%
BITSFR1              0      0       0       2        0.0%
SFR1                 0      0       0       2        0.0%
STACK                0      0       0       2        0.0%
ABS                  0      0      68       3        0.0%
BITBANK0            50      0       0       4        0.0%
BITSFR3              0      0       0       4        0.0%
SFR3                 0      0       0       4        0.0%
BANK0               50     4F      4F       5       98.8%
BITSFR2              0      0       0       5        0.0%
SFR2                 0      0       0       5        0.0%
BITBANK1            50      0       0       6        0.0%
BANK1               50      8       C       7       15.0%
BITBANK3            60      0       0       8        0.0%
BANK3               60      0       0       9        0.0%
BITBANK2            60      0       0      10        0.0%
BANK2               60      0       0      11        0.0%
DATA                 0      0      68      12        0.0%


Microchip Technology PIC Macro Assembler V2.05 build -831301201 
Symbol Table                                                                                   Tue May 07 17:19:21 2019

             ___fldiv@aexp 0049               ___fldiv@bexp 0048                          pc 0002  
             ___fldiv@sign 0041                         l83 0EF1                         l85 0EFC  
                       l79 0EED                         l96 0F19                         fsr 0004  
      __Umul8_16@word_mpld 0076                        l107 02FB                        l264 0F83  
                      l600 07EB                        l392 0054                        l640 00F1  
                      l632 00D1                        l570 04CD                        l626 0091  
                      l572 04DB                        l548 038E                        l645 0F34  
                      l639 00E7                        _PR2 0092               ___flmul@aexp 005C  
             ___flmul@bexp 005D               ___flmul@sign 0057               ___flmul@temp 0062  
             ___flmul@prod 005E               ___fltol@exp1 006E                       l1311 0019  
                     l1307 0010                       l1421 0427                       l1501 050A  
                     l1255 0FA4                       l1247 0F94                       l1415 0408  
                     l1423 03E4                       l1327 0040                       l1273 0FF7  
                     l1265 0FDC                       l1257 0FB4                       l1441 044F  
                     l1425 042C                       l1361 0368                       l1281 0F2C  
                     l1601 07A5                       l1337 0063                       l1329 0050  
                     l1451 0468                       l1355 035D                       l1611 07D4  
                     l1515 0525                       l1269 0FE9                       l1461 049A  
                     l1605 07BB                       l1517 0527                       l1447 0466  
                     l1439 0432                       l1375 0383                       l1359 0360  
                     l1527 053D                       l1519 052F                       l1465 04B3  
                     l1641 00B6                       l1395 03B9                       l1379 0386  
                     l1651 00D6                       l1635 00A0                       l1477 04D7  
                     l1389 03AD                       l1581 075A                       l1629 0089  
                     l1591 0773                       l1663 010E                       l1639 00A4  
                     l1497 0500                       l1649 00E5                       l1745 02CE  
                     l1587 0771                       l1579 073D                       l1499 0502  
                     l1687 01BB                       l1767 0322                       l1699 0271  
                     u1205 0FA8                       u1225 0FB6                       u1235 0FCB  
                     u2115 00AD                       u1245 0FDD                       u2045 0790  
                     u2230 01B8                       u2055 07AE                       u1335 0022  
                     u2135 00C9                       u2065 07C6                       u1515 03ED  
                     u2155 00DE                       u2260 026E                       u1605 0441  
                     u1525 03F6                       u1285 0F35                       u1365 0041  
                     u1545 0401                       u2337 02F3                       u1555 0416  
                     u1395 0059                       u2195 00F9                       u2347 031B  
                     u2357 033B                       u2367 0F11                       u1585 0436  
                     u1905 06E6                       u1675 0485                       u1835 05ED  
                     u1685 04A3                       u1925 070B                       u1695 04BE  
                     u1945 0729                       u1865 064A                       u1955 0741  
                     u1975 074C                       _main 0283                       btemp 007E  
                     start 0000            ___fldiv@new_exp 0042              ___fltol@sign1 006D  
          __end_of___aldiv 1000                      ?_main 0070            __end_of_adcInit 0EAB  
                    _CCP1X 00BD            __end_of___fldiv 04E3                      _CCP1Y 00BC  
                    _CCP2X 00ED            __end_of_adcRead 0F22                      _CCP2Y 00EC  
          __end_of___flmul 07F8            __end_of___fltol 0072                      _FREQ1 00A8  
                    _FREQ2 00AA                      _PORTB 0006                      _PORTD 0008  
                    _TRISB 0086                      _TRISD 0088            __end_of_setTMR2 0F00  
                    pclath 000A                      status 0003           _pwmSetDutyCycle1 0117  
         _pwmSetDutyCycle2 01CD                      wtemp0 007E            __initialization 07F8  
             __end_of_main 0340                     ??_main 00A4                     _CCP1M2 00BA  
                   _CCP1M3 00BB                     _CCP2M2 00EA                     _CCP2M3 00EB  
                   _ADRESH 001E                     _ADRESL 009E                     _CCPR1L 0015  
                   _CCPR2L 001B                     _TMR2ON 0092                     _TRISC1 0439  
                   _TRISC2 043A           __end_of___xxtofl 0117                  ??___aldiv 0078  
                ??_adcInit 0070                  ??___fldiv 0038                  ??_adcRead 0072  
                ??___flmul 0052                  ??___fltol 0068                     _setPR2 0F45  
                ??_setTMR2 0070         __size_of__Umul8_16 0023           __end_of_pwmInit1 0EC7  
         __end_of_pwmInit2 0EE3               ___xxtofl@arg 002C               ___xxtofl@exp 002B  
             ___xxtofl@val 0026    __end_of__initialization 07FC                 ___fltol@f1 0064  
           __pcstackCOMMON 0070                 __pbssBANK1 00AA          __end_of__Umul8_16 0F45  
               __pmaintext 0283                    ?_setPR2 0026   __end_of_pwmSetDutyCycle1 01CD  
 __end_of_pwmSetDutyCycle2 0283                    _T2CKPS0 0090                    _T2CKPS1 0091  
                ?___xxtofl 0026                 __stringtab 0800       pwmSetDutyCycle1@duty 00A0  
     pwmSetDutyCycle2@duty 00A0                  ?_pwmInit1 0028                  ?_pwmInit2 0028  
                  ___aldiv 0F71                    _adcInit 0E9B                    ___fldiv 0340  
                  _adcRead 0F00                    ___flmul 04E3                    ___fltol 0005  
          __size_of_setPR2 002C                    __ptext1 01CD                    __ptext2 0117  
                  __ptext3 0072                    __ptext4 0005                    __ptext5 04E3  
                  __ptext6 0F22                    __ptext7 0340                    __ptext8 0EC7  
                  __ptext9 0EAB                 ??___xxtofl 0079                    _setTMR2 0EE3  
         ___aldiv@dividend 0074       end_of_initialization 07FC                 ??_pwmInit1 007B  
               ??_pwmInit2 007B           ___aldiv@quotient 0022          __end_ofmain@delta 0807  
                _PORTBbits 0006                  _PORTDbits 0008              ___xxtofl@sign 002A  
              ___fldiv@grs 0044                ___fldiv@rem 003D                ___flmul@grs 0058  
           __end_of_setPR2 0F71        start_initialization 07F8                  __Umul8_16 0F22  
                 ??_setPR2 0079                 setPR2@freq 0026          ?_pwmSetDutyCycle1 00A0  
        ?_pwmSetDutyCycle2 00A0                  ___fldiv@a 0030                  ___fldiv@b 0034  
                ___flmul@a 004E                  ___flmul@b 004A                  ___latbits 0002  
               setTMR2@pwm 0070         ??_pwmSetDutyCycle1 00A2         ??_pwmSetDutyCycle2 00A2  
            __pcstackBANK0 0020              __pcstackBANK1 00A0          __size_of___xxtofl 00A5  
                __pnvBANK1 00A8                   ?___aldiv 0070                   ?_adcInit 0070  
                 ?___fldiv 0030                   ?_adcRead 0070                   ?___flmul 004A  
                 ?___fltol 0064                 ?__Umul8_16 0070          __size_of_pwmInit1 001C  
        __size_of_pwmInit2 001C                  __pstrings 0800          adcRead@adcChannel 0070  
                 ?_setTMR2 0070            ___aldiv@divisor 0070            ___aldiv@counter 0020  
               _ADCON0bits 001F                __stringbase 0805                 _ADCON1bits 009F  
                main@delta 0806                  main@duty1 00A6                ??__Umul8_16 0072  
         __size_of___aldiv 008F           __size_of_adcInit 0010           __size_of___fldiv 01A3  
         __size_of_adcRead 0022           __size_of___flmul 0315           __size_of___fltol 006D  
       __end_of__stringtab 0806                   ___xxtofl 0072           __size_of_setTMR2 001D  
                 __ptext10 0EE3                   __ptext11 0F45                   __ptext12 0F71  
                 __ptext13 0F00                   __ptext14 0E9B              __size_of_main 00BD  
                 _pwmInit1 0EAB                   _pwmInit2 0EC7  __size_of_pwmSetDutyCycle1 00B6  
__size_of_pwmSetDutyCycle2 00B6                  stringcode 0800     __Umul8_16@multiplicand 0070  
             pwmInit1@freq 0028               pwmInit2@freq 0028                   stringdir 0800  
                 stringtab 0800               ___aldiv@sign 0021       __Umul8_16@multiplier 0078  
        __Umul8_16@product 0074  
